Microchip MPLAB XC8 Compiler V1.30 ()

Linker command line:

--edf=/Applications/microchip/xc8/v1.30/dat/en_msgs.txt -cs \
  -h+dist/default/production/Framework.X.production.sym \
  --cmf=dist/default/production/Framework.X.production.cmf -z -Q18F45J10 \
  -o/tmp/cgtrNEPTH -Mdist/default/production/Framework.X.production.map -E1 \
  -ver=XC8 -ASTACK=0273h-03ffh -pstack=STACK -ACODE=00h-07FF7h \
  -ACONST=00h-07FF7h -ASMALLCONST=0400h-04FFhx123,07F00h-07FF7h \
  -AMEDIUMCONST=0400h-07FF7h -ACOMRAM=01h-07Fh -AABS1=00h-03FFh \
  -ABIGRAM=01h-03FFh -ARAM=080h-0FFh,0100h-01FFhx3 -ABANK0=080h-0FFh \
  -ABANK1=0100h-01FFh -ABANK2=0200h-02FFh -ABANK3=0300h-03FFh \
  -ASFR=0F80h-0FFFh \
  -preset_vec=00h,intcode=08h,intcodelo=018h,powerup,init,end_init \
  -pramtop=0400h -psmallconst=SMALLCONST -pmediumconst=MEDIUMCONST \
  -pconst=CONST -AFARRAM=00h-00h -ACONFIG=07FF8h-07FFDh -pconfig=CONFIG \
  -pjflash_buffer=07800h \
  -prdata=COMRAM,nvrram=COMRAM,nvbit=COMRAM,rbss=COMRAM,rbit=COMRAM \
  -pfarbss=FARRAM,fardata=FARRAM,nvFARRAM=FARRAM \
  -pintsave_regs=BIGRAM,bigbss=BIGRAM,bigdata=BIGRAM -pbss=RAM \
  -pidata=CODE,irdata=CODE,ibigdata=CODE,ifardata=CODE /tmp/cgtpDtxdD.obj \
  dist/default/production/Framework.X.production.obj 

Object code version is 3.11

Machine type is 18F45J10

Call graph: (short form)




                Name                               Link     Load   Length Selector   Space Scale
/tmp/cgtpDtxdD.obj
                end_init                             AC       AC        4        C       0
                reset_vec                             0        0        4        0       0
                config                             7FF8     7FF8        6     7FF8       0
dist/default/production/Framework.X.production.obj
                intcodelo                            18       18       94        C       0
                intcode                               8        8        C        4       0
                text37                              D8E      D8E       14        C       0
                text36                              E00      E00        4        C       0
                text35                              D7A      D7A       14        C       0
                text34                              DFC      DFC        4        C       0
                text33                              D66      D66       14        C       0
                text32                              B8E      B8E       40        C       0
                text31                              7A8      7A8       A6        C       0
                text30                              3B0      3B0      14E        C       0
                text29                              DEA      DEA       12        C       0
                text28                              C82      C82       3C        C       0
                text27                              C46      C46       3C        C       0
                text26                              A8C      A8C       42        C       0
                intcode_body                        84E      84E       7E        C       0
                text24                              DD8      DD8       12        C       0
                text23                              B4E      B4E       40        C       0
                text22                              702      702       A6        C       0
                text21                              C0A      C0A       3C        C       0
                text20                              BCE      BCE       3C        C       0
                text19                              A4A      A4A       42        C       0
                text17                              946      946       64        C       0
                text16                              D20      D20       2A        C       0
                text15                              634      634       CE        C       0
                text14                              E08      E08        2        C       0
                text13                              CF6      CF6       2A        C       0
                text12                              CBE      CBE       38        C       0
                text11                              D4A      D4A       1C        C       0
                text10                              DC6      DC6       12        C       0
                text9                               8CC      8CC       7A        C       0
                text8                               DB4      DB4       12        C       0
                text7                               DA2      DA2       12        C       0
                text6                               9AA      9AA       5E        C       0
                text5                               4FE      4FE      136        C       0
                text4                               B0E      B0E       40        C       0
                text3                               ACE      ACE       40        C       0
                text2                               E06      E06        2        C       0
                text1                               E04      E04        2        C       0
                cstackCOMRAM                          1        1       4D        1       1
                cstackBANK0                          B6       B6       2C       80       1
                bssBIGRAM                           16C      16C      107      16C       1
                bssBANK1                            100      100       6C      100       1
                bssBANK0                             80       80       36       80       1
                bssCOMRAM                            4E       4E        7        1       1
                cinit                               A08      A08       42        C       0
                text0                                B0       B0      300        C       0

TOTAL           Name                               Link     Load   Length     Space
        CLASS   STACK          

        CLASS   CODE           
                end_init                             AC       AC        4         0
                intcodelo                            18       18       94         0
                intcode                               8        8        C         0
                reset_vec                             0        0        4         0
                text37                              D8E      D8E       14         0
                text36                              E00      E00        4         0
                text35                              D7A      D7A       14         0
                text34                              DFC      DFC        4         0
                text33                              D66      D66       14         0
                text32                              B8E      B8E       40         0
                text31                              7A8      7A8       A6         0
                text30                              3B0      3B0      14E         0
                text29                              DEA      DEA       12         0
                text28                              C82      C82       3C         0
                text27                              C46      C46       3C         0
                text26                              A8C      A8C       42         0
                intcode_body                        84E      84E       7E         0
                text24                              DD8      DD8       12         0
                text23                              B4E      B4E       40         0
                text22                              702      702       A6         0
                text21                              C0A      C0A       3C         0
                text20                              BCE      BCE       3C         0
                text19                              A4A      A4A       42         0
                text17                              946      946       64         0
                text16                              D20      D20       2A         0
                text15                              634      634       CE         0
                text14                              E08      E08        2         0
                text13                              CF6      CF6       2A         0
                text12                              CBE      CBE       38         0
                text11                              D4A      D4A       1C         0
                text10                              DC6      DC6       12         0
                text9                               8CC      8CC       7A         0
                text8                               DB4      DB4       12         0
                text7                               DA2      DA2       12         0
                text6                               9AA      9AA       5E         0
                text5                               4FE      4FE      136         0
                text4                               B0E      B0E       40         0
                text3                               ACE      ACE       40         0
                text2                               E06      E06        2         0
                text1                               E04      E04        2         0
                cinit                               A08      A08       42         0
                text0                                B0       B0      300         0

        CLASS   CONST          

        CLASS   SMALLCONST     

        CLASS   MEDIUMCONST    

        CLASS   COMRAM         
                cstackCOMRAM                          1        1       4D         1
                bssCOMRAM                            4E       4E        7         1

        CLASS   ABS1           

        CLASS   BIGRAM         
                bssBIGRAM                           16C      16C      107         1

        CLASS   RAM            

        CLASS   BANK0          
                cstackBANK0                          B6       B6       2C         1
                bssBANK0                             80       80       36         1

        CLASS   BANK1          
                bssBANK1                            100      100       6C         1

        CLASS   BANK2          

        CLASS   BANK3          

        CLASS   SFR            

        CLASS   FARRAM         

        CLASS   CONFIG         
                config                             7FF8     7FF8        6         0

        CLASS   IDLOC          



SEGMENTS        Name                           Load    Length   Top    Selector   Space  Class

                reset_vec                      000000  000004  000004         0       0  CODE    
                cstackCOMRAM                   000001  000054  000055         1       1  COMRAM  
                intcode                        000008  00000C  000014         4       0  CODE    
                intcodelo                      000018  000DF2  000E0A         C       0  CODE    
                bssBANK0                       000080  000062  0000E2        80       1  BANK0   
                bssBANK1                       000100  00006C  00016C       100       1  BANK1   
                bssBIGRAM                      00016C  000107  000273       16C       1  BIGRAM  
                config                         007FF8  000006  007FFE      7FF8       0  CONFIG  


UNUSED ADDRESS RANGES

        Name                Unused          Largest block    Delta
        BANK0            000E2-000FF              1E
        BANK2            00273-002FF              8D
        BANK3            00300-003FF             100
        BIGRAM           00055-0007F              2B
                         000E2-000FF              1E
                         00273-003FF             18D
        CODE             00004-00007               4
                         00014-00017               4
                         00E0A-07FF7            71EE
        COMRAM           00055-0007F              2B
        CONST            00004-00007               4
                         00014-00017               4
                         00E0A-07FF7            71EE
        MEDIUMCONST      00E0A-07FF7            71EE
        RAM              000E2-000FF              1E
                         00273-003FF              8D
        SFR              00F80-00FFF              80
        SMALLCONST       00E0A-07FF7             100
        STACK            00273-003FF             18D

                                  Symbol Table

?_CheckBuffer                  cstackCOMRAM  00029
?_CheckDataNOTAddress          cstackCOMRAM  00029
?_CheckStart                   cstackCOMRAM  00029
OpenTimer0@config              cstackBANK0   000B6
OpenTimer1@config              cstackBANK0   000B6
WriteTimer0@timer              cstackCOMRAM  0002B
WriteTimer0@timer0             cstackCOMRAM  00029
WriteTimer1@timer              cstackCOMRAM  00003
WriteTimer1@timer1             cstackCOMRAM  00001
_CheckBuffer                   text37        00D8E
_CheckClock                    text36        00E00
_CheckDataNOTAddress           text35        00D7A
_CheckReadWrite                text34        00DFC
_CheckStart                    text33        00D66
_I2CR_int_handler              text30        003B0
_INTCON2bits                   (abs)         00FF1
_INTCON3bits                   (abs)         00FF0
_INTCONbits                    (abs)         00FF2
_IPR1bits                      (abs)         00F9F
_InitI2C                       text17        00946
_InterruptHandlerHigh          intcode       00008
_InterruptHandlerLow           intcodelo     00018
_LATB                          (abs)         00F8A
_LATBbits                      (abs)         00F8A
_OSCCON                        (abs)         00FD3
_OSCTUNEbits                   (abs)         00F9B
_OpenTimer0                    text13        00CF6
_OpenTimer1                    text12        00CBE
_PIE1                          (abs)         00F9D
_PIE1bits                      (abs)         00F9D
_PIE2                          (abs)         00FA0
_PIE3                          (abs)         00FA3
_PIR1bits                      (abs)         00F9E
_RCONbits                      (abs)         00FD0
_SSP1CON1bits                  (abs)         00FC6
_SSPADD                        (abs)         00FC8
_SSPBUF                        (abs)         00FC9
_SSPCON1                       (abs)         00FC6
_SSPCON1bits                   (abs)         00FC6
_SSPCON2                       (abs)         00FC5
_SSPCON2bits                   (abs)         00FC5
_SSPSTAT                       (abs)         00FC7
_SSPSTATbits                   (abs)         00FC7
_T0CON                         (abs)         00FD5
_T0CONbits                     (abs)         00FD5
_T1CON                         (abs)         00FCD
_T1CONbits                     (abs)         00FCD
_TMR0H                         (abs)         00FD7
_TMR0L                         (abs)         00FD6
_TMR1H                         (abs)         00FCF
_TMR1L                         (abs)         00FCE
_TRISB                         (abs)         00F93
_TRISCbits                     (abs)         00F94
_WriteTimer0                   text29        00DEA
_WriteTimer1                   text24        00DD8
__CFG_CCP2MX$DEFAULT           (abs)         00000
__CFG_CP0$OFF                  (abs)         00000
__CFG_FCMEN$ON                 (abs)         00000
__CFG_FOSC$HSPLL               (abs)         00000
__CFG_FOSC2$ON                 (abs)         00000
__CFG_IESO$ON                  (abs)         00000
__CFG_STVREN$OFF               (abs)         00000
__CFG_WDTEN$OFF                (abs)         00000
__CFG_WDTPS$32768              (abs)         00000
__CFG_XINST$OFF                (abs)         00000
__HRAM                         (abs)         00000
__Habs1                        abs1          00000
__Hbank0                       bank0         00000
__Hbank1                       bank1         00000
__Hbank2                       bank2         00000
__Hbank3                       bank3         00000
__Hbigbss                      bigbss        00000
__Hbigdata                     bigdata       00000
__Hbigram                      bigram        00000
__Hbss                         bss           00000
__HbssBANK0                    bssBANK0      00000
__HbssBANK1                    bssBANK1      00000
__HbssBIGRAM                   bssBIGRAM     00000
__HbssCOMRAM                   bssCOMRAM     00000
__Hcinit                       cinit         00000
__Hclrtext                     clrtext       00000
__Hcomram                      comram        00000
__Hconfig                      config        07FFE
__Hconst                       const         00000
__HcstackBANK0                 cstackBANK0   00000
__HcstackCOMRAM                cstackCOMRAM  00000
__Hdata                        data          00000
__Hend_init                    end_init      000B0
__Hfarbss                      farbss        00000
__Hfardata                     fardata       00000
__Hibigdata                    ibigdata      00000
__Hidata                       idata         00000
__Hidloc                       idloc         00000
__Hifardata                    ifardata      00000
__Hinit                        init          000AC
__Hintcode                     intcode       00014
__Hintcode_body                intcode_body  00000
__Hintcodelo                   intcodelo     000AC
__Hintentry                    intentry      00000
__Hintret                      intret        00000
__Hintsave_regs                intsave_regs  00000
__Hirdata                      irdata        00000
__Hjflash_buffer               jflash_buffer 07800
__Hmediumconst                 mediumconst   00000
__HnvFARRAM                    nvFARRAM      00000
__Hnvbit                       nvbit         00000
__Hnvrram                      nvrram        00000
__Hparam                       rparam        00000
__Hpowerup                     powerup       000AC
__Hram                         ram           00000
__Hramtop                      ramtop        00400
__Hrbit                        rbit          00000
__Hrbss                        rbss          00000
__Hrdata                       rdata         00000
__Hreset_vec                   reset_vec     00004
__Hrparam                      rparam        00000
__Hsfr                         sfr           00000
__Hsmallconst                  smallconst    00000
__Hstack                       stack         00000
__Hstruct                      struct        00000
__Htemp                        temp          00000
__Htext                        text          00000
__Htext0                       text0         00000
__Htext1                       text1         00000
__Htext10                      text10        00000
__Htext11                      text11        00000
__Htext12                      text12        00000
__Htext13                      text13        00000
__Htext14                      text14        00000
__Htext15                      text15        00000
__Htext16                      text16        00000
__Htext17                      text17        00000
__Htext19                      text19        00000
__Htext2                       text2         00000
__Htext20                      text20        00000
__Htext21                      text21        00000
__Htext22                      text22        00000
__Htext23                      text23        00000
__Htext24                      text24        00000
__Htext26                      text26        00000
__Htext27                      text27        00000
__Htext28                      text28        00000
__Htext29                      text29        00000
__Htext3                       text3         00000
__Htext30                      text30        00000
__Htext31                      text31        00000
__Htext32                      text32        00000
__Htext33                      text33        00000
__Htext34                      text34        00000
__Htext35                      text35        00000
__Htext36                      text36        00000
__Htext37                      text37        00000
__Htext4                       text4         00000
__Htext5                       text5         00000
__Htext6                       text6         00000
__Htext7                       text7         00000
__Htext8                       text8         00000
__Htext9                       text9         00000
__LRAM                         (abs)         00001
__Labs1                        abs1          00000
__Lbank0                       bank0         00000
__Lbank1                       bank1         00000
__Lbank2                       bank2         00000
__Lbank3                       bank3         00000
__Lbigbss                      bigbss        00000
__Lbigdata                     bigdata       00000
__Lbigram                      bigram        00000
__Lbss                         bss           00000
__LbssBANK0                    bssBANK0      00000
__LbssBANK1                    bssBANK1      00000
__LbssBIGRAM                   bssBIGRAM     00000
__LbssCOMRAM                   bssCOMRAM     00000
__Lcinit                       cinit         00000
__Lclrtext                     clrtext       00000
__Lcomram                      comram        00000
__Lconfig                      config        07FF8
__Lconst                       const         00000
__LcstackBANK0                 cstackBANK0   00000
__LcstackCOMRAM                cstackCOMRAM  00000
__Ldata                        data          00000
__Lend_init                    end_init      000AC
__Lfarbss                      farbss        00000
__Lfardata                     fardata       00000
__Libigdata                    ibigdata      00000
__Lidata                       idata         00000
__Lidloc                       idloc         00000
__Lifardata                    ifardata      00000
__Linit                        init          000AC
__Lintcode                     intcode       00008
__Lintcode_body                intcode_body  00000
__Lintcodelo                   intcodelo     00018
__Lintentry                    intentry      00000
__Lintret                      intret        00000
__Lintsave_regs                intsave_regs  00000
__Lirdata                      irdata        00000
__Ljflash_buffer               jflash_buffer 07800
__Lmediumconst                 mediumconst   00000
__LnvFARRAM                    nvFARRAM      00000
__Lnvbit                       nvbit         00000
__Lnvrram                      nvrram        00000
__Lparam                       rparam        00000
__Lpowerup                     powerup       000AC
__Lram                         ram           00000
__Lramtop                      ramtop        00400
__Lrbit                        rbit          00000
__Lrbss                        rbss          00000
__Lrdata                       rdata         00000
__Lreset_vec                   reset_vec     00000
__Lrparam                      rparam        00000
__Lsfr                         sfr           00000
__Lsmallconst                  smallconst    00000
__Lstack                       stack         00000
__Lstruct                      struct        00000
__Ltemp                        temp          00000
__Ltext                        text          00000
__Ltext0                       text0         00000
__Ltext1                       text1         00000
__Ltext10                      text10        00000
__Ltext11                      text11        00000
__Ltext12                      text12        00000
__Ltext13                      text13        00000
__Ltext14                      text14        00000
__Ltext15                      text15        00000
__Ltext16                      text16        00000
__Ltext17                      text17        00000
__Ltext19                      text19        00000
__Ltext2                       text2         00000
__Ltext20                      text20        00000
__Ltext21                      text21        00000
__Ltext22                      text22        00000
__Ltext23                      text23        00000
__Ltext24                      text24        00000
__Ltext26                      text26        00000
__Ltext27                      text27        00000
__Ltext28                      text28        00000
__Ltext29                      text29        00000
__Ltext3                       text3         00000
__Ltext30                      text30        00000
__Ltext31                      text31        00000
__Ltext32                      text32        00000
__Ltext33                      text33        00000
__Ltext34                      text34        00000
__Ltext35                      text35        00000
__Ltext36                      text36        00000
__Ltext37                      text37        00000
__Ltext4                       text4         00000
__Ltext5                       text5         00000
__Ltext6                       text6         00000
__Ltext7                       text7         00000
__Ltext8                       text8         00000
__Ltext9                       text9         00000
__S0                           (abs)         07FFE
__S1                           (abs)         00273
__S2                           (abs)         00000
___extmem_base                 (abs)         20000
___inthi_sp                    stack         00000
___intlo_sp                    stack         00000
___sp                          stack         00000
__accesstop                    (abs)         00080
__activetblptr                 (abs)         00002
__end_of_CheckBuffer           text37        00DA2
__end_of_CheckClock            text36        00E04
__end_of_CheckDataNOTAddress   text35        00D8E
__end_of_CheckReadWrite        text34        00E00
__end_of_CheckStart            text33        00D7A
__end_of_I2CR_int_handler      text30        004FE
__end_of_InitI2C               text17        009AA
__end_of_InterruptHandlerHigh  intcode_body  008CC
__end_of_InterruptHandlerLow   intcodelo     000AC
__end_of_OpenTimer0            text13        00D20
__end_of_OpenTimer1            text12        00CF6
__end_of_WriteTimer0           text29        00DFC
__end_of_WriteTimer1           text24        00DEA
__end_of__initialization       cinit         00A40
__end_of_enable_interrupts     text16        00D4A
__end_of_flipDBG               text15        00702
__end_of_i2c_lthread           text14        00E0A
__end_of_init_hardware         text11        00D66
__end_of_init_i2c_lthread      text10        00DD8
__end_of_init_queue            text9         00946
__end_of_init_timer0_lthread   text8         00DC6
__end_of_init_timer1_lthread   text7         00DB4
__end_of_main                  text0         003B0
__end_of_memcpy                text6         00A08
__end_of_recv_msg              text5         00634
__end_of_resetDBG              text4         00B4E
__end_of_send_msg              text22        007A8
__end_of_setDBG                text3         00B0E
__end_of_timer0_int_handler    text26        00ACE
__end_of_timer0_lthread        text2         00E08
__end_of_timer1_int_handler    text19        00A8C
__end_of_timer1_lthread        text1         00E06
__end_ofi1_memcpy              text23        00B8E
__end_ofi1_resetDBG            text21        00C46
__end_ofi1_setDBG              text20        00C0A
__end_ofi2_memcpy              text32        00BCE
__end_ofi2_resetDBG            text28        00CBE
__end_ofi2_send_msg            text31        0084E
__end_ofi2_setDBG              text27        00C82
__initialization               cinit         00A08
__mediumconst                  mediumconst   00000
__pbssBANK0                    bssBANK0      00080
__pbssBANK1                    bssBANK1      00100
__pbssBIGRAM                   bssBIGRAM     0016C
__pbssCOMRAM                   bssCOMRAM     0004E
__pcinit                       cinit         00A08
__pcstackBANK0                 cstackBANK0   000B6
__pcstackCOMRAM                cstackCOMRAM  00001
__pintcode                     intcode       00008
__pintcode_body                intcode_body  0084E
__pintcodelo                   intcodelo     00018
__ptext0                       text0         000B0
__ptext1                       text1         00E04
__ptext10                      text10        00DC6
__ptext11                      text11        00D4A
__ptext12                      text12        00CBE
__ptext13                      text13        00CF6
__ptext14                      text14        00E08
__ptext15                      text15        00634
__ptext16                      text16        00D20
__ptext17                      text17        00946
__ptext19                      text19        00A4A
__ptext2                       text2         00E06
__ptext20                      text20        00BCE
__ptext21                      text21        00C0A
__ptext22                      text22        00702
__ptext23                      text23        00B4E
__ptext24                      text24        00DD8
__ptext26                      text26        00A8C
__ptext27                      text27        00C46
__ptext28                      text28        00C82
__ptext29                      text29        00DEA
__ptext3                       text3         00ACE
__ptext30                      text30        003B0
__ptext31                      text31        007A8
__ptext32                      text32        00B8E
__ptext33                      text33        00D66
__ptext34                      text34        00DFC
__ptext35                      text35        00D7A
__ptext36                      text36        00E00
__ptext37                      text37        00D8E
__ptext4                       text4         00B0E
__ptext5                       text5         004FE
__ptext6                       text6         009AA
__ptext7                       text7         00DA2
__ptext8                       text8         00DB4
__ptext9                       text9         008CC
__ramtop                       ramtop        00400
__size_of_CheckBuffer          (abs)         00000
__size_of_CheckClock           (abs)         00000
__size_of_CheckDataNOTAddress  (abs)         00000
__size_of_CheckReadWrite       (abs)         00000
__size_of_CheckStart           (abs)         00000
__size_of_I2CR_int_handler     (abs)         00000
__size_of_InitI2C              (abs)         00000
__size_of_InterruptHandlerHigh (abs)         00000
__size_of_InterruptHandlerLow  (abs)         00000
__size_of_OpenTimer0           (abs)         00000
__size_of_OpenTimer1           (abs)         00000
__size_of_WriteTimer0          (abs)         00000
__size_of_WriteTimer1          (abs)         00000
__size_of_enable_interrupts    (abs)         00000
__size_of_flipDBG              (abs)         00000
__size_of_i2c_lthread          (abs)         00000
__size_of_init_hardware        (abs)         00000
__size_of_init_i2c_lthread     (abs)         00000
__size_of_init_queue           (abs)         00000
__size_of_init_timer0_lthread  (abs)         00000
__size_of_init_timer1_lthread  (abs)         00000
__size_of_main                 (abs)         00000
__size_of_memcpy               (abs)         00000
__size_of_recv_msg             (abs)         00000
__size_of_resetDBG             (abs)         00000
__size_of_send_msg             (abs)         00000
__size_of_setDBG               (abs)         00000
__size_of_timer0_int_handler   (abs)         00000
__size_of_timer0_lthread       (abs)         00000
__size_of_timer1_int_handler   (abs)         00000
__size_of_timer1_lthread       (abs)         00000
__size_ofi1_memcpy             (abs)         00000
__size_ofi1_resetDBG           (abs)         00000
__size_ofi1_setDBG             (abs)         00000
__size_ofi2_memcpy             (abs)         00000
__size_ofi2_resetDBG           (abs)         00000
__size_ofi2_send_msg           (abs)         00000
__size_ofi2_setDBG             (abs)         00000
__smallconst                   smallconst    00000
_data_read                     bssCOMRAM     0004E
_data_written                  bssCOMRAM     00050
_enable_interrupts             text16        00D20
_flipDBG                       text15        00634
_i2c_data                      bssCOMRAM     00054
_i2c_lthread                   text14        00E08
_i2c_queue                     bssBANK0      00080
_icStatus                      bssBIGRAM     0016C
_init_hardware                 text11        00D4A
_init_i2c_lthread              text10        00DC6
_init_queue                    text9         008CC
_init_timer0_lthread           text8         00DB4
_init_timer1_lthread           text7         00DA2
_main                          text0         000B0
_memcpy                        text6         009AA
_recv_msg                      text5         004FE
_resetDBG                      text4         00B0E
_sendMessage                   bssCOMRAM     00052
_send_msg                      text22        00702
_setDBG                        text3         00ACE
_timer0_int_handler            text26        00A8C
_timer0_lthread                text2         00E06
_timer0_queue                  bssBANK1      00100
_timer1_int_handler            text19        00A4A
_timer1_lthread                text1         00E04
_timer1_queue                  bssBANK1      00136
end_of_initialization          cinit         00A40
flipDBG@b                      cstackBANK0   000B7
i1_memcpy                      text23        00B4E
i1_resetDBG                    text21        00C0A
i1_setDBG                      text20        00BCE
i1memcpy@d                     cstackCOMRAM  00007
i1memcpy@d1                    cstackCOMRAM  00001
i1memcpy@n                     cstackCOMRAM  00005
i1memcpy@s                     cstackCOMRAM  00009
i1memcpy@s1                    cstackCOMRAM  00003
i1resetDBG@b                   cstackCOMRAM  00001
i1setDBG@b                     cstackCOMRAM  00001
i2_memcpy                      text32        00B8E
i2_resetDBG                    text28        00C82
i2_send_msg                    text31        007A8
i2_setDBG                      text27        00C46
i2c_lthread@length             cstackBANK0   000BA
i2c_lthread@msgbuffer          cstackBANK0   000BC
i2c_lthread@msgtype            cstackBANK0   000B8
i2c_lthread@tptr               cstackBANK0   000B6
i2memcpy@d                     cstackCOMRAM  0002F
i2memcpy@d1                    cstackCOMRAM  00029
i2memcpy@n                     cstackCOMRAM  0002D
i2memcpy@s                     cstackCOMRAM  00031
i2memcpy@s1                    cstackCOMRAM  0002B
i2resetDBG@b                   cstackCOMRAM  00029
i2send_msg@data                cstackCOMRAM  00037
i2send_msg@length              cstackCOMRAM  00035
i2send_msg@msgtype             cstackCOMRAM  00036
i2send_msg@qmsg                cstackCOMRAM  0003C
i2send_msg@qptr                cstackCOMRAM  00033
i2send_msg@slot                cstackCOMRAM  0003A
i2send_msg@tlength             cstackCOMRAM  0003B
i2setDBG@b                     cstackCOMRAM  00029
init_i2c_lthread@tptr          cstackBANK0   000B6
init_queue@i                   cstackBANK0   000B9
init_queue@qptr                cstackBANK0   000B6
init_timer0_lthread@tptr       cstackBANK0   000B6
init_timer1_lthread@tptr       cstackBANK0   000B6
int_func                       intcode_body  0084E
intlevel0                      text          00000
intlevel1                      text          00000
intlevel2                      text          00000
intlevel3                      text          00000
main@i2cthread_data            cstackBANK0   000DE
main@length                    cstackBANK0   000E0
main@msgbuffer                 cstackBANK0   000CF
main@msgtype                   cstackBANK0   000E1
main@t0thread_data             cstackBANK0   000DC
main@t1thread_data             cstackBANK0   000DA
memcpy@d                       cstackBANK0   000BC
memcpy@d1                      cstackBANK0   000B6
memcpy@n                       cstackBANK0   000BA
memcpy@s                       cstackBANK0   000BE
memcpy@s1                      cstackBANK0   000B8
recv_msg@data                  cstackBANK0   000C5
recv_msg@maxlength             cstackBANK0   000C2
recv_msg@msgtype               cstackBANK0   000C3
recv_msg@qmsg                  cstackBANK0   000CC
recv_msg@qptr                  cstackBANK0   000C0
recv_msg@slot                  cstackBANK0   000C9
recv_msg@tlength               cstackBANK0   000CA
resetDBG@b                     cstackBANK0   000B6
send_msg@data                  cstackCOMRAM  0000F
send_msg@length                cstackCOMRAM  0000D
send_msg@msgtype               cstackCOMRAM  0000E
send_msg@qmsg                  cstackCOMRAM  00014
send_msg@qptr                  cstackCOMRAM  0000B
send_msg@slot                  cstackCOMRAM  00012
send_msg@tlength               cstackCOMRAM  00013
setDBG@b                       cstackBANK0   000B6
stackhi                        (abs)         003FF
stacklo                        (abs)         00273
start                          init          000AC
start_initialization           cinit         00A08
timer0_lthread@length          cstackBANK0   000BA
timer0_lthread@msgbuffer       cstackBANK0   000BC
timer0_lthread@msgtype         cstackBANK0   000B8
timer0_lthread@tptr            cstackBANK0   000B6
timer1_lthread@length          cstackBANK0   000BA
timer1_lthread@msgbuffer       cstackBANK0   000BC
timer1_lthread@msgtype         cstackBANK0   000B8
timer1_lthread@tptr            cstackBANK0   000B6


FUNCTION INFORMATION:

 *************** function _main *****************
 Defined at:
		line 71 in file "main.c"
 Parameters:    Size  Location     Type
		None
 Auto vars:     Size  Location     Type
  msgbuffer      11   25[BANK0 ] unsigned char [11]
  i2cthread_da    2   40[BANK0 ] struct __i2c_thread_stru
  t0thread_dat    2   38[BANK0 ] struct __timer0_thread_s
  t1thread_dat    2   36[BANK0 ] struct __timer1_thread_s
  msgtype         1   43[BANK0 ] unsigned char 
  length          1   42[BANK0 ] char 
 Return value:  Size  Location     Type
		None               void
 Registers used:
		wreg, fsr1l, fsr1h, fsr2l, fsr2h, status,2, status,0, prodl, prodh, cstack
 Tracked objects:
		On entry : 
		On exit  : 
		Unchanged: 
 Data sizes:     COMRAM   BANK0   BANK1   BANK2   BANK3
      Params:         0       0       0       0       0
      Locals:         0      19       0       0       0
      Temps:          0       1       0       0       0
      Totals:         0      20       0       0       0
Total ram usage:       20 bytes
 Hardware stack levels required when called:   10
 This function calls:
		_InitI2C
		_enable_interrupts
		_flipDBG
		_i2c_lthread
		_init_hardware
		_init_i2c_lthread
		_init_queue
		_init_timer0_lthread
		_init_timer1_lthread
		_recv_msg
		_resetDBG
		_setDBG
		_timer0_lthread
		_timer1_lthread
 This function is called by:
		Startup code after reset
 This function uses a non-reentrant model


 *************** function _timer1_lthread *****************
 Defined at:
		line 11 in file "timer1_thread.c"
 Parameters:    Size  Location     Type
  tptr            2    0[BANK0 ] PTR struct __timer1_thre
		 -> main@t1thread_data(2), 
  msgtype         2    2[BANK0 ] int 
  length          2    4[BANK0 ] int 
  msgbuffer       2    6[BANK0 ] PTR unsigned char 
		 -> main@msgbuffer(11), 
 Auto vars:     Size  Location     Type
		None
 Return value:  Size  Location     Type
                  2    0[BANK0 ] int 
 Registers used:
		None
 Tracked objects:
		On entry : 
		On exit  : 
		Unchanged: 
 Data sizes:     COMRAM   BANK0   BANK1   BANK2   BANK3
      Params:         0       8       0       0       0
      Locals:         0       0       0       0       0
      Temps:          0       0       0       0       0
      Totals:         0       8       0       0       0
Total ram usage:        8 bytes
 Hardware stack levels used:    1
 Hardware stack levels required when called:    8
 This function calls:
		Nothing
 This function is called by:
		_main
 This function uses a non-reentrant model


 *************** function _timer0_lthread *****************
 Defined at:
		line 10 in file "timer0_thread.c"
 Parameters:    Size  Location     Type
  tptr            2    0[BANK0 ] PTR struct __timer0_thre
		 -> main@t0thread_data(2), 
  msgtype         2    2[BANK0 ] int 
  length          2    4[BANK0 ] int 
  msgbuffer       2    6[BANK0 ] PTR unsigned char 
		 -> main@msgbuffer(11), 
 Auto vars:     Size  Location     Type
		None
 Return value:  Size  Location     Type
                  2    0[BANK0 ] int 
 Registers used:
		None
 Tracked objects:
		On entry : 
		On exit  : 
		Unchanged: 
 Data sizes:     COMRAM   BANK0   BANK1   BANK2   BANK3
      Params:         0       8       0       0       0
      Locals:         0       0       0       0       0
      Temps:          0       0       0       0       0
      Totals:         0       8       0       0       0
Total ram usage:        8 bytes
 Hardware stack levels used:    1
 Hardware stack levels required when called:    8
 This function calls:
		Nothing
 This function is called by:
		_main
 This function uses a non-reentrant model


 *************** function _setDBG *****************
 Defined at:
		line 4 in file "debug.c"
 Parameters:    Size  Location     Type
  b               1    wreg     unsigned char 
 Auto vars:     Size  Location     Type
  b               1    0[BANK0 ] unsigned char 
 Return value:  Size  Location     Type
		None               void
 Registers used:
		wreg, status,2, status,0
 Tracked objects:
		On entry : 
		On exit  : 
		Unchanged: 
 Data sizes:     COMRAM   BANK0   BANK1   BANK2   BANK3
      Params:         0       0       0       0       0
      Locals:         0       1       0       0       0
      Temps:          0       0       0       0       0
      Totals:         0       1       0       0       0
Total ram usage:        1 bytes
 Hardware stack levels used:    1
 Hardware stack levels required when called:    8
 This function calls:
		Nothing
 This function is called by:
		_main
 This function uses a non-reentrant model


 *************** function _resetDBG *****************
 Defined at:
		line 26 in file "debug.c"
 Parameters:    Size  Location     Type
  b               1    wreg     unsigned char 
 Auto vars:     Size  Location     Type
  b               1    0[BANK0 ] unsigned char 
 Return value:  Size  Location     Type
		None               void
 Registers used:
		wreg, status,2, status,0
 Tracked objects:
		On entry : 
		On exit  : 
		Unchanged: 
 Data sizes:     COMRAM   BANK0   BANK1   BANK2   BANK3
      Params:         0       0       0       0       0
      Locals:         0       1       0       0       0
      Temps:          0       0       0       0       0
      Totals:         0       1       0       0       0
Total ram usage:        1 bytes
 Hardware stack levels used:    1
 Hardware stack levels required when called:    8
 This function calls:
		Nothing
 This function is called by:
		_main
 This function uses a non-reentrant model


 *************** function _recv_msg *****************
 Defined at:
		line 48 in file "messages.c"
 Parameters:    Size  Location     Type
  qptr            2   10[BANK0 ] PTR struct __msg_queue
		 -> i2c_queue(54), timer1_queue(54), timer0_queue(54), 
  maxlength       1   12[BANK0 ] unsigned char 
  msgtype         2   13[BANK0 ] PTR unsigned char 
		 -> main@msgtype(1), 
  data            2   15[BANK0 ] PTR void 
		 -> main@msgbuffer(11), 
 Auto vars:     Size  Location     Type
  qmsg            2   22[BANK0 ] PTR struct __msg
		 -> timer0_queue.queue(52), timer1_queue.queue(52), i2c_queue.queue(52), i2c_queue(54), 
		 -> timer1_queue(54), timer0_queue(54), 
  tlength         2   20[BANK0 ] unsigned int 
  slot            1   19[BANK0 ] unsigned char 
 Return value:  Size  Location     Type
                  1    wreg      char 
 Registers used:
		wreg, fsr1l, fsr1h, fsr2l, fsr2h, status,2, status,0, prodl, prodh, cstack
 Tracked objects:
		On entry : 
		On exit  : 
		Unchanged: 
 Data sizes:     COMRAM   BANK0   BANK1   BANK2   BANK3
      Params:         0       7       0       0       0
      Locals:         0       5       0       0       0
      Temps:          0       2       0       0       0
      Totals:         0      14       0       0       0
Total ram usage:       14 bytes
 Hardware stack levels used:    1
 Hardware stack levels required when called:    9
 This function calls:
		_memcpy
 This function is called by:
		_main
 This function uses a non-reentrant model


 *************** function _memcpy *****************
 Defined at:
		line 11 in file "/Applications/microchip/xc8/v1.30/sources/common/memcpy.c"
 Parameters:    Size  Location     Type
  d1              2    0[BANK0 ] PTR void 
		 -> timer0_queue.queue(52), timer1_queue.queue(52), i2c_queue.queue(52), main@msgbuffer(11), 
		 -> i2c_queue(54), timer1_queue(54), timer0_queue(54), 
  s1              2    2[BANK0 ] PTR const void 
		 -> timer0_queue.data(10), timer1_queue.data(10), i2c_queue.data(10), i2c_queue.queue.data(10), 
		 -> timer1_queue.queue.data(10), timer0_queue.queue.data(10), i2c_queue(54), timer1_queue(54), 
		 -> NULL(0), timer0_queue(54), 
  n               2    4[BANK0 ] unsigned int 
 Auto vars:     Size  Location     Type
  s               2    8[BANK0 ] PTR const unsigned char 
		 -> timer0_queue.data(10), timer1_queue.data(10), i2c_queue.data(10), i2c_queue.queue.data(10), 
		 -> timer1_queue.queue.data(10), timer0_queue.queue.data(10), i2c_queue(54), timer1_queue(54), 
		 -> NULL(0), timer0_queue(54), 
  d               2    6[BANK0 ] PTR unsigned char 
		 -> timer0_queue.queue(52), timer1_queue.queue(52), i2c_queue.queue(52), main@msgbuffer(11), 
		 -> i2c_queue(54), timer1_queue(54), timer0_queue(54), 
 Return value:  Size  Location     Type
                  2    0[BANK0 ] PTR void 
 Registers used:
		wreg, fsr1l, fsr1h, fsr2l, fsr2h, status,2, status,0
 Tracked objects:
		On entry : 
		On exit  : 
		Unchanged: 
 Data sizes:     COMRAM   BANK0   BANK1   BANK2   BANK3
      Params:         0       6       0       0       0
      Locals:         0       4       0       0       0
      Temps:          0       0       0       0       0
      Totals:         0      10       0       0       0
Total ram usage:       10 bytes
 Hardware stack levels used:    1
 Hardware stack levels required when called:    8
 This function calls:
		Nothing
 This function is called by:
		_recv_msg
 This function uses a non-reentrant model


 *************** function _init_timer1_lthread *****************
 Defined at:
		line 7 in file "timer1_thread.c"
 Parameters:    Size  Location     Type
  tptr            2    0[BANK0 ] PTR struct __timer1_thre
		 -> main@t1thread_data(2), 
 Auto vars:     Size  Location     Type
		None
 Return value:  Size  Location     Type
		None               void
 Registers used:
		wreg, fsr2l, fsr2h
 Tracked objects:
		On entry : 
		On exit  : 
		Unchanged: 
 Data sizes:     COMRAM   BANK0   BANK1   BANK2   BANK3
      Params:         0       2       0       0       0
      Locals:         0       0       0       0       0
      Temps:          0       0       0       0       0
      Totals:         0       2       0       0       0
Total ram usage:        2 bytes
 Hardware stack levels used:    1
 Hardware stack levels required when called:    8
 This function calls:
		Nothing
 This function is called by:
		_main
 This function uses a non-reentrant model


 *************** function _init_timer0_lthread *****************
 Defined at:
		line 6 in file "timer0_thread.c"
 Parameters:    Size  Location     Type
  tptr            2    0[BANK0 ] PTR struct __timer0_thre
		 -> main@t0thread_data(2), 
 Auto vars:     Size  Location     Type
		None
 Return value:  Size  Location     Type
		None               void
 Registers used:
		wreg, fsr2l, fsr2h
 Tracked objects:
		On entry : 
		On exit  : 
		Unchanged: 
 Data sizes:     COMRAM   BANK0   BANK1   BANK2   BANK3
      Params:         0       2       0       0       0
      Locals:         0       0       0       0       0
      Temps:          0       0       0       0       0
      Totals:         0       2       0       0       0
Total ram usage:        2 bytes
 Hardware stack levels used:    1
 Hardware stack levels required when called:    8
 This function calls:
		Nothing
 This function is called by:
		_main
 This function uses a non-reentrant model


 *************** function _init_queue *****************
 Defined at:
		line 9 in file "messages.c"
 Parameters:    Size  Location     Type
  qptr            2    0[BANK0 ] PTR struct __msg_queue
		 -> i2c_queue(54), timer1_queue(54), timer0_queue(54), 
 Auto vars:     Size  Location     Type
  i               1    3[BANK0 ] unsigned char 
 Return value:  Size  Location     Type
		None               void
 Registers used:
		wreg, fsr2l, fsr2h, status,2, status,0, prodl, prodh
 Tracked objects:
		On entry : 
		On exit  : 
		Unchanged: 
 Data sizes:     COMRAM   BANK0   BANK1   BANK2   BANK3
      Params:         0       2       0       0       0
      Locals:         0       1       0       0       0
      Temps:          0       1       0       0       0
      Totals:         0       4       0       0       0
Total ram usage:        4 bytes
 Hardware stack levels used:    1
 Hardware stack levels required when called:    8
 This function calls:
		Nothing
 This function is called by:
		_main
 This function uses a non-reentrant model


 *************** function _init_i2c_lthread *****************
 Defined at:
		line 7 in file "i2c_thread.c"
 Parameters:    Size  Location     Type
  tptr            2    0[BANK0 ] PTR struct __i2c_thread_
		 -> main@i2cthread_data(2), 
 Auto vars:     Size  Location     Type
		None
 Return value:  Size  Location     Type
		None               void
 Registers used:
		wreg, fsr2l, fsr2h
 Tracked objects:
		On entry : 
		On exit  : 
		Unchanged: 
 Data sizes:     COMRAM   BANK0   BANK1   BANK2   BANK3
      Params:         0       2       0       0       0
      Locals:         0       0       0       0       0
      Temps:          0       0       0       0       0
      Totals:         0       2       0       0       0
Total ram usage:        2 bytes
 Hardware stack levels used:    1
 Hardware stack levels required when called:    8
 This function calls:
		Nothing
 This function is called by:
		_main
 This function uses a non-reentrant model


 *************** function _init_hardware *****************
 Defined at:
		line 38 in file "main.c"
 Parameters:    Size  Location     Type
		None
 Auto vars:     Size  Location     Type
		None
 Return value:  Size  Location     Type
		None               void
 Registers used:
		wreg, status,2, status,0, cstack
 Tracked objects:
		On entry : 
		On exit  : 
		Unchanged: 
 Data sizes:     COMRAM   BANK0   BANK1   BANK2   BANK3
      Params:         0       0       0       0       0
      Locals:         0       0       0       0       0
      Temps:          0       0       0       0       0
      Totals:         0       0       0       0       0
Total ram usage:        0 bytes
 Hardware stack levels used:    1
 Hardware stack levels required when called:    9
 This function calls:
		_OpenTimer0
		_OpenTimer1
 This function is called by:
		_main
 This function uses a non-reentrant model


 *************** function _OpenTimer1 *****************
 Defined at:
		line 16 in file "/Applications/microchip/xc8/v1.30/sources/pic18/plib/Timers/t1open.c"
 Parameters:    Size  Location     Type
  config          1    wreg     unsigned char 
 Auto vars:     Size  Location     Type
  config          1    0[BANK0 ] unsigned char 
 Return value:  Size  Location     Type
		None               void
 Registers used:
		wreg, status,2, status,0
 Tracked objects:
		On entry : 
		On exit  : 
		Unchanged: 
 Data sizes:     COMRAM   BANK0   BANK1   BANK2   BANK3
      Params:         0       0       0       0       0
      Locals:         0       1       0       0       0
      Temps:          0       0       0       0       0
      Totals:         0       1       0       0       0
Total ram usage:        1 bytes
 Hardware stack levels used:    1
 Hardware stack levels required when called:    8
 This function calls:
		Nothing
 This function is called by:
		_init_hardware
 This function uses a non-reentrant model


 *************** function _OpenTimer0 *****************
 Defined at:
		line 18 in file "/Applications/microchip/xc8/v1.30/sources/pic18/plib/Timers/t0open.c"
 Parameters:    Size  Location     Type
  config          1    wreg     unsigned char 
 Auto vars:     Size  Location     Type
  config          1    0[BANK0 ] unsigned char 
 Return value:  Size  Location     Type
		None               void
 Registers used:
		wreg, status,2, status,0
 Tracked objects:
		On entry : 
		On exit  : 
		Unchanged: 
 Data sizes:     COMRAM   BANK0   BANK1   BANK2   BANK3
      Params:         0       0       0       0       0
      Locals:         0       1       0       0       0
      Temps:          0       0       0       0       0
      Totals:         0       1       0       0       0
Total ram usage:        1 bytes
 Hardware stack levels used:    1
 Hardware stack levels required when called:    8
 This function calls:
		Nothing
 This function is called by:
		_init_hardware
 This function uses a non-reentrant model


 *************** function _i2c_lthread *****************
 Defined at:
		line 11 in file "i2c_thread.c"
 Parameters:    Size  Location     Type
  tptr            2    0[BANK0 ] PTR struct __i2c_thread_
		 -> main@i2cthread_data(2), 
  msgtype         2    2[BANK0 ] int 
  length          2    4[BANK0 ] int 
  msgbuffer       2    6[BANK0 ] PTR unsigned char 
		 -> main@msgbuffer(11), 
 Auto vars:     Size  Location     Type
		None
 Return value:  Size  Location     Type
                  2    0[BANK0 ] int 
 Registers used:
		None
 Tracked objects:
		On entry : 
		On exit  : 
		Unchanged: 
 Data sizes:     COMRAM   BANK0   BANK1   BANK2   BANK3
      Params:         0       8       0       0       0
      Locals:         0       0       0       0       0
      Temps:          0       0       0       0       0
      Totals:         0       8       0       0       0
Total ram usage:        8 bytes
 Hardware stack levels used:    1
 Hardware stack levels required when called:    8
 This function calls:
		Nothing
 This function is called by:
		_main
 This function uses a non-reentrant model


 *************** function _flipDBG *****************
 Defined at:
		line 47 in file "debug.c"
 Parameters:    Size  Location     Type
  b               1    wreg     unsigned char 
 Auto vars:     Size  Location     Type
  b               1    1[BANK0 ] unsigned char 
 Return value:  Size  Location     Type
		None               void
 Registers used:
		wreg, status,2, status,0
 Tracked objects:
		On entry : 
		On exit  : 
		Unchanged: 
 Data sizes:     COMRAM   BANK0   BANK1   BANK2   BANK3
      Params:         0       0       0       0       0
      Locals:         0       1       0       0       0
      Temps:          0       1       0       0       0
      Totals:         0       2       0       0       0
Total ram usage:        2 bytes
 Hardware stack levels used:    1
 Hardware stack levels required when called:    8
 This function calls:
		Nothing
 This function is called by:
		_main
 This function uses a non-reentrant model


 *************** function _enable_interrupts *****************
 Defined at:
		line 6 in file "interrupts.c"
 Parameters:    Size  Location     Type
		None
 Auto vars:     Size  Location     Type
		None
 Return value:  Size  Location     Type
		None               void
 Registers used:
		wreg, status,2
 Tracked objects:
		On entry : 
		On exit  : 
		Unchanged: 
 Data sizes:     COMRAM   BANK0   BANK1   BANK2   BANK3
      Params:         0       0       0       0       0
      Locals:         0       0       0       0       0
      Temps:          0       0       0       0       0
      Totals:         0       0       0       0       0
Total ram usage:        0 bytes
 Hardware stack levels used:    1
 Hardware stack levels required when called:    8
 This function calls:
		Nothing
 This function is called by:
		_main
 This function uses a non-reentrant model


 *************** function _InitI2C *****************
 Defined at:
		line 127 in file "I2C.c"
 Parameters:    Size  Location     Type
		None
 Auto vars:     Size  Location     Type
		None
 Return value:  Size  Location     Type
		None               void
 Registers used:
		wreg, status,2, status,0
 Tracked objects:
		On entry : 
		On exit  : 
		Unchanged: 
 Data sizes:     COMRAM   BANK0   BANK1   BANK2   BANK3
      Params:         0       0       0       0       0
      Locals:         0       0       0       0       0
      Temps:          0       0       0       0       0
      Totals:         0       0       0       0       0
Total ram usage:        0 bytes
 Hardware stack levels used:    1
 Hardware stack levels required when called:    8
 This function calls:
		Nothing
 This function is called by:
		_main
 This function uses a non-reentrant model


 *************** function _InterruptHandlerLow *****************
 Defined at:
		line 74 in file "interrupts.c"
 Parameters:    Size  Location     Type
		None
 Auto vars:     Size  Location     Type
		None
 Return value:  Size  Location     Type
		None               void
 Registers used:
		wreg, fsr1l, fsr1h, fsr2l, fsr2h, status,2, status,0, prodl, prodh, cstack
 Tracked objects:
		On entry : 
		On exit  : 
		Unchanged: 
 Data sizes:     COMRAM   BANK0   BANK1   BANK2   BANK3
      Params:         0       0       0       0       0
      Locals:         0       0       0       0       0
      Temps:         17       0       0       0       0
      Totals:        17       0       0       0       0
Total ram usage:       17 bytes
 Hardware stack levels used:    1
 Hardware stack levels required when called:    7
 This function calls:
		_timer1_int_handler
 This function is called by:
		Interrupt level 1
 This function uses a non-reentrant model


 *************** function _timer1_int_handler *****************
 Defined at:
		line 39 in file "user_interrupts.c"
 Parameters:    Size  Location     Type
		None
 Auto vars:     Size  Location     Type
		None
 Return value:  Size  Location     Type
		None               void
 Registers used:
		wreg, fsr1l, fsr1h, fsr2l, fsr2h, status,2, status,0, prodl, prodh, cstack
 Tracked objects:
		On entry : 
		On exit  : 
		Unchanged: 
 Data sizes:     COMRAM   BANK0   BANK1   BANK2   BANK3
      Params:         0       0       0       0       0
      Locals:         0       0       0       0       0
      Temps:          2       0       0       0       0
      Totals:         2       0       0       0       0
Total ram usage:        2 bytes
 Hardware stack levels used:    1
 Hardware stack levels required when called:    6
 This function calls:
		_WriteTimer1
		_send_msg
		i1_resetDBG
		i1_setDBG
 This function is called by:
		_InterruptHandlerLow
 This function uses a non-reentrant model


 *************** function i1_setDBG *****************
 Defined at:
		line 4 in file "debug.c"
 Parameters:    Size  Location     Type
  b               1    wreg     unsigned char 
 Auto vars:     Size  Location     Type
  b               1    0[COMRAM] unsigned char 
 Return value:  Size  Location     Type
		None               void
 Registers used:
		wreg, status,2, status,0
 Tracked objects:
		On entry : 
		On exit  : 
		Unchanged: 
 Data sizes:     COMRAM   BANK0   BANK1   BANK2   BANK3
      Params:         0       0       0       0       0
      Locals:         1       0       0       0       0
      Temps:          0       0       0       0       0
      Totals:         1       0       0       0       0
Total ram usage:        1 bytes
 Hardware stack levels used:    1
 Hardware stack levels required when called:    4
 This function calls:
		Nothing
 This function is called by:
		_timer1_int_handler
 This function uses a non-reentrant model


 *************** function i1_resetDBG *****************
 Defined at:
		line 26 in file "debug.c"
 Parameters:    Size  Location     Type
  b               1    wreg     unsigned char 
 Auto vars:     Size  Location     Type
  b               1    0[COMRAM] unsigned char 
 Return value:  Size  Location     Type
		None               void
 Registers used:
		wreg, status,2, status,0
 Tracked objects:
		On entry : 
		On exit  : 
		Unchanged: 
 Data sizes:     COMRAM   BANK0   BANK1   BANK2   BANK3
      Params:         0       0       0       0       0
      Locals:         1       0       0       0       0
      Temps:          0       0       0       0       0
      Totals:         1       0       0       0       0
Total ram usage:        1 bytes
 Hardware stack levels used:    1
 Hardware stack levels required when called:    4
 This function calls:
		Nothing
 This function is called by:
		_timer1_int_handler
 This function uses a non-reentrant model


 *************** function _send_msg *****************
 Defined at:
		line 19 in file "messages.c"
 Parameters:    Size  Location     Type
  qptr            2   10[COMRAM] PTR struct __msg_queue
		 -> i2c_queue(54), timer1_queue(54), timer0_queue(54), 
  length          1   12[COMRAM] unsigned char 
  msgtype         1   13[COMRAM] unsigned char 
  data            2   14[COMRAM] PTR void 
		 -> NULL(0), 
 Auto vars:     Size  Location     Type
  qmsg            2   19[COMRAM] PTR struct __msg
		 -> timer0_queue.queue(52), timer1_queue.queue(52), i2c_queue.queue(52), i2c_queue(54), 
		 -> timer1_queue(54), timer0_queue(54), 
  tlength         1   18[COMRAM] unsigned char 
  slot            1   17[COMRAM] unsigned char 
 Return value:  Size  Location     Type
                  1    wreg      char 
 Registers used:
		wreg, fsr1l, fsr1h, fsr2l, fsr2h, status,2, status,0, prodl, prodh, cstack
 Tracked objects:
		On entry : 
		On exit  : 
		Unchanged: 
 Data sizes:     COMRAM   BANK0   BANK1   BANK2   BANK3
      Params:         6       0       0       0       0
      Locals:         4       0       0       0       0
      Temps:          1       0       0       0       0
      Totals:        11       0       0       0       0
Total ram usage:       11 bytes
 Hardware stack levels used:    1
 Hardware stack levels required when called:    5
 This function calls:
		i1_memcpy
 This function is called by:
		_timer1_int_handler
 This function uses a non-reentrant model


 *************** function i1_memcpy *****************
 Defined at:
		line 11 in file "/Applications/microchip/xc8/v1.30/sources/common/memcpy.c"
 Parameters:    Size  Location     Type
  d1              2    0[COMRAM] PTR void 
		 -> timer0_queue.queue(52), timer1_queue.queue(52), i2c_queue.queue(52), main@msgbuffer(11), 
		 -> i2c_queue(54), timer1_queue(54), timer0_queue(54), 
  s1              2    2[COMRAM] PTR const void 
		 -> timer0_queue.data(10), timer1_queue.data(10), i2c_queue.data(10), i2c_queue.queue.data(10), 
		 -> timer1_queue.queue.data(10), timer0_queue.queue.data(10), i2c_queue(54), timer1_queue(54), 
		 -> NULL(0), timer0_queue(54), 
  n               2    4[COMRAM] unsigned int 
 Auto vars:     Size  Location     Type
  memcpy          2    8[COMRAM] PTR const unsigned char 
		 -> timer0_queue.data(10), timer1_queue.data(10), i2c_queue.data(10), i2c_queue.queue.data(10), 
		 -> timer1_queue.queue.data(10), timer0_queue.queue.data(10), i2c_queue(54), timer1_queue(54), 
		 -> NULL(0), timer0_queue(54), 
  memcpy          2    6[COMRAM] PTR unsigned char 
		 -> timer0_queue.queue(52), timer1_queue.queue(52), i2c_queue.queue(52), main@msgbuffer(11), 
		 -> i2c_queue(54), timer1_queue(54), timer0_queue(54), 
 Return value:  Size  Location     Type
                  2    0[COMRAM] PTR void 
 Registers used:
		wreg, fsr1l, fsr1h, fsr2l, fsr2h, status,2, status,0
 Tracked objects:
		On entry : 
		On exit  : 
		Unchanged: 
 Data sizes:     COMRAM   BANK0   BANK1   BANK2   BANK3
      Params:         6       0       0       0       0
      Locals:         4       0       0       0       0
      Temps:          0       0       0       0       0
      Totals:        10       0       0       0       0
Total ram usage:       10 bytes
 Hardware stack levels used:    1
 Hardware stack levels required when called:    4
 This function calls:
		Nothing
 This function is called by:
		_send_msg
 This function uses a non-reentrant model


 *************** function _WriteTimer1 *****************
 Defined at:
		line 14 in file "/Applications/microchip/xc8/v1.30/sources/pic18/plib/Timers/t1write.c"
 Parameters:    Size  Location     Type
  timer1          2    0[COMRAM] unsigned int 
 Auto vars:     Size  Location     Type
  timer           2    2[COMRAM] struct Timers
 Return value:  Size  Location     Type
		None               void
 Registers used:
		None
 Tracked objects:
		On entry : 
		On exit  : 
		Unchanged: 
 Data sizes:     COMRAM   BANK0   BANK1   BANK2   BANK3
      Params:         2       0       0       0       0
      Locals:         2       0       0       0       0
      Temps:          0       0       0       0       0
      Totals:         4       0       0       0       0
Total ram usage:        4 bytes
 Hardware stack levels used:    1
 Hardware stack levels required when called:    4
 This function calls:
		Nothing
 This function is called by:
		_timer1_int_handler
 This function uses a non-reentrant model


 *************** function _InterruptHandlerHigh *****************
 Defined at:
		line 53 in file "interrupts.c"
 Parameters:    Size  Location     Type
		None
 Auto vars:     Size  Location     Type
		None
 Return value:  Size  Location     Type
		None               void
 Registers used:
		wreg, fsr0l, fsr0h, fsr1l, fsr1h, fsr1l, fsr1h, fsr2l, fsr2h, status,2, status,0, pclat, btemp, btemp+1, btemp+2, btemp+3, btemp+4, btemp+5, btemp+6, btemp+7, btemp+8, btemp+9, btemp+10, btemp+11, tosl, structret, tblptrl, tblptrh, tblptru, prodl, prodh, bsr, cstack
 Tracked objects:
		On entry : 
		On exit  : 
		Unchanged: 
 Data sizes:     COMRAM   BANK0   BANK1   BANK2   BANK3
      Params:         0       0       0       0       0
      Locals:         0       0       0       0       0
      Temps:         14       0       0       0       0
      Totals:        14       0       0       0       0
Total ram usage:       14 bytes
 Hardware stack levels used:    1
 Hardware stack levels required when called:    3
 This function calls:
		_I2CR_int_handler
		_timer0_int_handler
 This function is called by:
		Interrupt level 2
 This function uses a non-reentrant model


 *************** function _timer0_int_handler *****************
 Defined at:
		line 13 in file "user_interrupts.c"
 Parameters:    Size  Location     Type
		None
 Auto vars:     Size  Location     Type
		None
 Return value:  Size  Location     Type
		None               void
 Registers used:
		wreg, fsr1l, fsr1h, fsr2l, fsr2h, status,2, status,0, prodl, prodh, cstack
 Tracked objects:
		On entry : 
		On exit  : 
		Unchanged: 
 Data sizes:     COMRAM   BANK0   BANK1   BANK2   BANK3
      Params:         0       0       0       0       0
      Locals:         0       0       0       0       0
      Temps:          2       0       0       0       0
      Totals:         2       0       0       0       0
Total ram usage:        2 bytes
 Hardware stack levels used:    1
 Hardware stack levels required when called:    2
 This function calls:
		_WriteTimer0
		i2_resetDBG
		i2_send_msg
		i2_setDBG
 This function is called by:
		_InterruptHandlerHigh
 This function uses a non-reentrant model


 *************** function i2_setDBG *****************
 Defined at:
		line 4 in file "debug.c"
 Parameters:    Size  Location     Type
  b               1    wreg     unsigned char 
 Auto vars:     Size  Location     Type
  b               1   40[COMRAM] unsigned char 
 Return value:  Size  Location     Type
		None               void
 Registers used:
		wreg, status,2, status,0
 Tracked objects:
		On entry : 
		On exit  : 
		Unchanged: 
 Data sizes:     COMRAM   BANK0   BANK1   BANK2   BANK3
      Params:         0       0       0       0       0
      Locals:         1       0       0       0       0
      Temps:          0       0       0       0       0
      Totals:         1       0       0       0       0
Total ram usage:        1 bytes
 Hardware stack levels used:    1
 This function calls:
		Nothing
 This function is called by:
		_timer0_int_handler
 This function uses a non-reentrant model


 *************** function i2_resetDBG *****************
 Defined at:
		line 26 in file "debug.c"
 Parameters:    Size  Location     Type
  b               1    wreg     unsigned char 
 Auto vars:     Size  Location     Type
  b               1   40[COMRAM] unsigned char 
 Return value:  Size  Location     Type
		None               void
 Registers used:
		wreg, status,2, status,0
 Tracked objects:
		On entry : 
		On exit  : 
		Unchanged: 
 Data sizes:     COMRAM   BANK0   BANK1   BANK2   BANK3
      Params:         0       0       0       0       0
      Locals:         1       0       0       0       0
      Temps:          0       0       0       0       0
      Totals:         1       0       0       0       0
Total ram usage:        1 bytes
 Hardware stack levels used:    1
 This function calls:
		Nothing
 This function is called by:
		_timer0_int_handler
 This function uses a non-reentrant model


 *************** function _WriteTimer0 *****************
 Defined at:
		line 16 in file "/Applications/microchip/xc8/v1.30/sources/pic18/plib/Timers/t0write.c"
 Parameters:    Size  Location     Type
  timer0          2   40[COMRAM] unsigned int 
 Auto vars:     Size  Location     Type
  timer           2   42[COMRAM] struct Timers
 Return value:  Size  Location     Type
		None               void
 Registers used:
		None
 Tracked objects:
		On entry : 
		On exit  : 
		Unchanged: 
 Data sizes:     COMRAM   BANK0   BANK1   BANK2   BANK3
      Params:         2       0       0       0       0
      Locals:         2       0       0       0       0
      Temps:          0       0       0       0       0
      Totals:         4       0       0       0       0
Total ram usage:        4 bytes
 Hardware stack levels used:    1
 This function calls:
		Nothing
 This function is called by:
		_timer0_int_handler
 This function uses a non-reentrant model


 *************** function _I2CR_int_handler *****************
 Defined at:
		line 49 in file "I2C.c"
 Parameters:    Size  Location     Type
		None
 Auto vars:     Size  Location     Type
		None
 Return value:  Size  Location     Type
		None               void
 Registers used:
		wreg, fsr1l, fsr1h, fsr2l, fsr2h, status,2, status,0, prodl, prodh, cstack
 Tracked objects:
		On entry : 
		On exit  : 
		Unchanged: 
 Data sizes:     COMRAM   BANK0   BANK1   BANK2   BANK3
      Params:         0       0       0       0       0
      Locals:         0       0       0       0       0
      Temps:          2       0       0       0       0
      Totals:         2       0       0       0       0
Total ram usage:        2 bytes
 Hardware stack levels used:    1
 Hardware stack levels required when called:    2
 This function calls:
		_CheckBuffer
		_CheckClock
		_CheckDataNOTAddress
		_CheckReadWrite
		_CheckStart
		i2_send_msg
 This function is called by:
		_InterruptHandlerHigh
 This function uses a non-reentrant model


 *************** function i2_send_msg *****************
 Defined at:
		line 19 in file "messages.c"
 Parameters:    Size  Location     Type
  qptr            2   50[COMRAM] PTR struct __msg_queue
		 -> i2c_queue(54), timer1_queue(54), timer0_queue(54), 
  length          1   52[COMRAM] unsigned char 
  msgtype         1   53[COMRAM] unsigned char 
  data            2   54[COMRAM] PTR void 
		 -> NULL(0), 
 Auto vars:     Size  Location     Type
  send_msg        2   59[COMRAM] PTR struct __msg
		 -> timer0_queue.queue(52), timer1_queue.queue(52), i2c_queue.queue(52), i2c_queue(54), 
		 -> timer1_queue(54), timer0_queue(54), 
  send_msg        1   58[COMRAM] unsigned char 
  send_msg        1   57[COMRAM] unsigned char 
 Return value:  Size  Location     Type
                  1    wreg      char 
 Registers used:
		wreg, fsr1l, fsr1h, fsr2l, fsr2h, status,2, status,0, prodl, prodh, cstack
 Tracked objects:
		On entry : 
		On exit  : 
		Unchanged: 
 Data sizes:     COMRAM   BANK0   BANK1   BANK2   BANK3
      Params:         6       0       0       0       0
      Locals:         4       0       0       0       0
      Temps:          1       0       0       0       0
      Totals:        11       0       0       0       0
Total ram usage:       11 bytes
 Hardware stack levels used:    1
 Hardware stack levels required when called:    1
 This function calls:
		i2_memcpy
 This function is called by:
		_timer0_int_handler
		_I2CR_int_handler
 This function uses a non-reentrant model


 *************** function i2_memcpy *****************
 Defined at:
		line 11 in file "/Applications/microchip/xc8/v1.30/sources/common/memcpy.c"
 Parameters:    Size  Location     Type
  d1              2   40[COMRAM] PTR void 
		 -> timer0_queue.queue(52), timer1_queue.queue(52), i2c_queue.queue(52), main@msgbuffer(11), 
		 -> i2c_queue(54), timer1_queue(54), timer0_queue(54), 
  s1              2   42[COMRAM] PTR const void 
		 -> timer0_queue.data(10), timer1_queue.data(10), i2c_queue.data(10), i2c_queue.queue.data(10), 
		 -> timer1_queue.queue.data(10), timer0_queue.queue.data(10), i2c_queue(54), timer1_queue(54), 
		 -> NULL(0), timer0_queue(54), 
  n               2   44[COMRAM] unsigned int 
 Auto vars:     Size  Location     Type
  memcpy          2   48[COMRAM] PTR const unsigned char 
		 -> timer0_queue.data(10), timer1_queue.data(10), i2c_queue.data(10), i2c_queue.queue.data(10), 
		 -> timer1_queue.queue.data(10), timer0_queue.queue.data(10), i2c_queue(54), timer1_queue(54), 
		 -> NULL(0), timer0_queue(54), 
  memcpy          2   46[COMRAM] PTR unsigned char 
		 -> timer0_queue.queue(52), timer1_queue.queue(52), i2c_queue.queue(52), main@msgbuffer(11), 
		 -> i2c_queue(54), timer1_queue(54), timer0_queue(54), 
 Return value:  Size  Location     Type
                  2   40[COMRAM] PTR void 
 Registers used:
		wreg, fsr1l, fsr1h, fsr2l, fsr2h, status,2, status,0
 Tracked objects:
		On entry : 
		On exit  : 
		Unchanged: 
 Data sizes:     COMRAM   BANK0   BANK1   BANK2   BANK3
      Params:         6       0       0       0       0
      Locals:         4       0       0       0       0
      Temps:          0       0       0       0       0
      Totals:        10       0       0       0       0
Total ram usage:       10 bytes
 Hardware stack levels used:    1
 This function calls:
		Nothing
 This function is called by:
		i2_send_msg
 This function uses a non-reentrant model


 *************** function _CheckStart *****************
 Defined at:
		line 34 in file "I2C.c"
 Parameters:    Size  Location     Type
		None
 Auto vars:     Size  Location     Type
		None
 Return value:  Size  Location     Type
                  2   40[COMRAM] int 
 Registers used:
		wreg, status,2
 Tracked objects:
		On entry : 
		On exit  : 
		Unchanged: 
 Data sizes:     COMRAM   BANK0   BANK1   BANK2   BANK3
      Params:         2       0       0       0       0
      Locals:         0       0       0       0       0
      Temps:          1       0       0       0       0
      Totals:         3       0       0       0       0
Total ram usage:        3 bytes
 Hardware stack levels used:    1
 This function calls:
		Nothing
 This function is called by:
		_I2CR_int_handler
 This function uses a non-reentrant model


 *************** function _CheckReadWrite *****************
 Defined at:
		line 42 in file "I2C.c"
 Parameters:    Size  Location     Type
		None
 Auto vars:     Size  Location     Type
		None
 Return value:  Size  Location     Type
                  2   40[COMRAM] int 
 Registers used:
		wreg
 Tracked objects:
		On entry : 
		On exit  : 
		Unchanged: 
 Data sizes:     COMRAM   BANK0   BANK1   BANK2   BANK3
      Params:         2       0       0       0       0
      Locals:         0       0       0       0       0
      Temps:          0       0       0       0       0
      Totals:         2       0       0       0       0
Total ram usage:        2 bytes
 Hardware stack levels used:    1
 This function calls:
		Nothing
 This function is called by:
		_I2CR_int_handler
 This function uses a non-reentrant model


 *************** function _CheckDataNOTAddress *****************
 Defined at:
		line 38 in file "I2C.c"
 Parameters:    Size  Location     Type
		None
 Auto vars:     Size  Location     Type
		None
 Return value:  Size  Location     Type
                  2   40[COMRAM] int 
 Registers used:
		wreg, status,2
 Tracked objects:
		On entry : 
		On exit  : 
		Unchanged: 
 Data sizes:     COMRAM   BANK0   BANK1   BANK2   BANK3
      Params:         2       0       0       0       0
      Locals:         0       0       0       0       0
      Temps:          1       0       0       0       0
      Totals:         3       0       0       0       0
Total ram usage:        3 bytes
 Hardware stack levels used:    1
 This function calls:
		Nothing
 This function is called by:
		_I2CR_int_handler
 This function uses a non-reentrant model


 *************** function _CheckClock *****************
 Defined at:
		line 25 in file "I2C.c"
 Parameters:    Size  Location     Type
		None
 Auto vars:     Size  Location     Type
		None
 Return value:  Size  Location     Type
                  2   40[COMRAM] int 
 Registers used:
		wreg
 Tracked objects:
		On entry : 
		On exit  : 
		Unchanged: 
 Data sizes:     COMRAM   BANK0   BANK1   BANK2   BANK3
      Params:         2       0       0       0       0
      Locals:         0       0       0       0       0
      Temps:          0       0       0       0       0
      Totals:         2       0       0       0       0
Total ram usage:        2 bytes
 Hardware stack levels used:    1
 This function calls:
		Nothing
 This function is called by:
		_I2CR_int_handler
 This function uses a non-reentrant model


 *************** function _CheckBuffer *****************
 Defined at:
		line 30 in file "I2C.c"
 Parameters:    Size  Location     Type
		None
 Auto vars:     Size  Location     Type
		None
 Return value:  Size  Location     Type
                  2   40[COMRAM] int 
 Registers used:
		wreg, status,2
 Tracked objects:
		On entry : 
		On exit  : 
		Unchanged: 
 Data sizes:     COMRAM   BANK0   BANK1   BANK2   BANK3
      Params:         2       0       0       0       0
      Locals:         0       0       0       0       0
      Temps:          1       0       0       0       0
      Totals:         3       0       0       0       0
Total ram usage:        3 bytes
 Hardware stack levels used:    1
 This function calls:
		Nothing
 This function is called by:
		_I2CR_int_handler
 This function uses a non-reentrant model



MODULE INFORMATION

Module		Function		Class		Link	Load	Size
i2c_thread.c
		_i2c_lthread   		CODE           	0E08	0000	2
		_init_i2c_lthre		CODE           	0DC6	0000	18

i2c_thread.c estimated size: 20

/Applications/microchip/xc8/v1.30/sources/common/memcpy.c
		_memcpy        		CODE           	09AA	0000	94

/Applications/microchip/xc8/v1.30/sources/common/memcpy.c estimated size: 94

shared
		i2_send_msg    		CODE           	07A8	0000	166
		i1_setDBG      		CODE           	0BCE	0000	60
		i2_setDBG      		CODE           	0C46	0000	60
		__initializatio		CODE           	0A08	0000	56
		i1_resetDBG    		CODE           	0C0A	0000	60
		i2_resetDBG    		CODE           	0C82	0000	60
		i1_memcpy      		CODE           	0B4E	0000	64
		i2_memcpy      		CODE           	0B8E	0000	64

shared estimated size: 590

timer0_thread.c
		_init_timer0_lt		CODE           	0DB4	0000	18
		_timer0_lthread		CODE           	0E06	0000	2

timer0_thread.c estimated size: 20

main.c
		_init_hardware 		CODE           	0D4A	0000	28
		_main          		CODE           	00B0	0000	768

main.c estimated size: 796

timer1_thread.c
		_timer1_lthread		CODE           	0E04	0000	2
		_init_timer1_lt		CODE           	0DA2	0000	18

timer1_thread.c estimated size: 20

interrupts.c
		_enable_interru		CODE           	0D20	0000	42
		_InterruptHandl		CODE           	0018	0000	148
		_InterruptHandl		CODE           	0008	0000	2244

interrupts.c estimated size: 2434

messages.c
		_send_msg      		CODE           	0702	0000	166
		_init_queue    		CODE           	08CC	0000	122
		_recv_msg      		CODE           	04FE	0000	310

messages.c estimated size: 598

debug.c
		_setDBG        		CODE           	0ACE	0000	64
		_resetDBG      		CODE           	0B0E	0000	64
		_flipDBG       		CODE           	0634	0000	206

debug.c estimated size: 334

/Applications/microchip/xc8/v1.30/sources/pic18/plib/Timers/t0write.c
		_WriteTimer0   		CODE           	0DEA	0000	18

/Applications/microchip/xc8/v1.30/sources/pic18/plib/Timers/t0write.c estimated size: 18

/Applications/microchip/xc8/v1.30/sources/pic18/plib/Timers/t1write.c
		_WriteTimer1   		CODE           	0DD8	0000	18

/Applications/microchip/xc8/v1.30/sources/pic18/plib/Timers/t1write.c estimated size: 18

/Applications/microchip/xc8/v1.30/sources/pic18/plib/Timers/t0open.c
		_OpenTimer0    		CODE           	0CF6	0000	42

/Applications/microchip/xc8/v1.30/sources/pic18/plib/Timers/t0open.c estimated size: 42

/Applications/microchip/xc8/v1.30/sources/pic18/plib/Timers/t1open.c
		_OpenTimer1    		CODE           	0CBE	0000	56

/Applications/microchip/xc8/v1.30/sources/pic18/plib/Timers/t1open.c estimated size: 56

user_interrupts.c
		_timer0_int_han		CODE           	0A8C	0000	66
		_timer1_int_han		CODE           	0A4A	0000	66

user_interrupts.c estimated size: 132

I2C.c
		_CheckDataNOTAd		CODE           	0D7A	0000	20
		_I2CR_int_handl		CODE           	03B0	0000	334
		_CheckReadWrite		CODE           	0DFC	0000	4
		_CheckBuffer   		CODE           	0D8E	0000	20
		_InitI2C       		CODE           	0946	0000	100
		_CheckClock    		CODE           	0E00	0000	4
		_CheckStart    		CODE           	0D66	0000	20

I2C.c estimated size: 502

