

Microchip Technology PIC18 LITE Macro Assembler V1.30 build 55553 
                                                                                               Mon Feb 10 19:32:12 2014

Microchip Technology Omniscient Code Generator (Lite mode) build 55553
     1                           	processor	18F45J10
     2                           	fnconf	rparam,??,?,0
     3                           	opt	pw 120
     4                           	opt	lm
     5                           	psect	idataCOMRAM,global,class=CODE,delta=1
     6                           	psect	nvCOMRAM,global,class=COMRAM,space=1,delta=1
     7                           	psect	cinit,global,reloc=2,class=CODE,delta=1
     8                           	psect	bssCOMRAM,global,class=COMRAM,space=1,delta=1
     9                           	psect	dataCOMRAM,global,class=COMRAM,space=1,delta=1
    10                           	psect	bssBANK0,global,class=BANK0,space=1,delta=1
    11                           	psect	bssBANK1,global,class=BANK1,space=1,delta=1
    12                           	psect	cstackBANK1,global,class=BANK1,space=1,delta=1
    13                           	psect	cstackBANK0,global,class=BANK0,space=1,delta=1
    14                           	psect	cstackCOMRAM,global,class=COMRAM,space=1,delta=1
    15                           	psect	text0,global,reloc=2,class=CODE,delta=1
    16                           	psect	text1,global,reloc=2,class=CODE,delta=1
    17                           	psect	text2,global,reloc=2,class=CODE,delta=1
    18                           	psect	text3,global,reloc=2,class=CODE,delta=1
    19                           	psect	text4,global,reloc=2,class=CODE,delta=1
    20                           	psect	text5,global,reloc=2,class=CODE,delta=1
    21                           	psect	text6,global,reloc=2,class=CODE,delta=1
    22                           	psect	text7,global,reloc=2,class=CODE,delta=1
    23                           	psect	text8,global,reloc=2,class=CODE,delta=1
    24                           	psect	text9,global,reloc=2,class=CODE,delta=1
    25                           	psect	text10,global,reloc=2,class=CODE,delta=1
    26                           	psect	text11,global,reloc=2,class=CODE,delta=1
    27                           	psect	text12,global,reloc=2,class=CODE,delta=1
    28                           	psect	text13,global,reloc=2,class=CODE,delta=1
    29                           	psect	text14,global,reloc=2,class=CODE,delta=1
    30                           	psect	text15,global,reloc=2,class=CODE,delta=1
    31                           	psect	text16,global,reloc=2,class=CODE,delta=1
    32                           	psect	text17,global,reloc=2,class=CODE,delta=1
    33                           	psect	intcodelo,global,reloc=2,class=CODE,delta=1
    34                           	psect	text19,global,reloc=2,class=CODE,delta=1
    35                           	psect	text20,global,reloc=2,class=CODE,delta=1
    36                           	psect	text21,global,reloc=2,class=CODE,delta=1
    37                           	psect	text22,global,reloc=2,class=CODE,delta=1
    38                           	psect	text23,global,reloc=2,class=CODE,delta=1
    39                           	psect	text24,global,reloc=2,class=CODE,delta=1
    40                           	psect	text25,global,reloc=2,class=CODE,delta=1
    41                           	psect	text26,global,reloc=2,class=CODE,delta=1
    42                           	psect	intcode,global,reloc=2,class=CODE,delta=1
    43                           	psect	intcode_body,global,reloc=2,class=CODE,delta=1
    44                           	psect	text28,global,reloc=2,class=CODE,delta=1
    45                           	psect	text29,global,reloc=2,class=CODE,delta=1
    46                           	psect	text30,global,reloc=2,class=CODE,delta=1
    47                           	psect	text31,global,reloc=2,class=CODE,delta=1
    48                           	psect	text32,global,reloc=2,class=CODE,delta=1
    49                           	psect	text33,global,reloc=2,class=CODE,delta=1
    50                           	psect	text34,global,reloc=2,class=CODE,delta=1
    51                           	psect	text35,global,reloc=2,class=CODE,delta=1
    52                           	psect	text36,global,reloc=2,class=CODE,delta=1
    53                           	psect	text37,global,reloc=2,class=CODE,delta=1
    54                           	psect	text38,global,reloc=2,class=CODE,delta=1
    55                           	psect	text39,global,reloc=2,class=CODE,delta=1
    56                           	psect	text40,global,reloc=2,class=CODE,delta=1
    57                           	psect	text41,global,reloc=2,class=CODE,delta=1
    58                           	psect	text42,global,reloc=2,class=CODE,delta=1
    59                           	psect	text43,global,reloc=2,class=CODE,delta=1
    60                           	psect	text44,global,reloc=2,class=CODE,delta=1
    61                           	psect	intsave_regs,global,class=BIGRAM,space=1,delta=1
    62                           	psect	rparam,global,class=COMRAM,space=1,delta=1
    63  0000                     
    64                           	psect	idataCOMRAM
    65  00143E                     __pidataCOMRAM:
    66                           	opt stack 0
    67                           
    68                           ;initializer for _j
    69  00143E  0064               	dw	100
    70  0000                     _ADCON0	set	4034
    71  0000                     _ADCON0bits	set	4034
    72  0000                     _ADCON1	set	4033
    73  0000                     _ADCON2	set	4032
    74  0000                     _ADRESH	set	4036
    75  0000                     _ADRESL	set	4035
    76  0000                     _INTCONbits	set	4082
    77  0000                     _IPR1bits	set	3999
    78  0000                     _LATB	set	3978
    79  0000                     _LATBbits	set	3978
    80  0000                     _OSCCON	set	4051
    81  0000                     _OSCCONbits	set	4051
    82  0000                     _OSCTUNEbits	set	3995
    83  0000                     _PIE1bits	set	3997
    84  0000                     _PIR1bits	set	3998
    85  0000                     _RCONbits	set	4048
    86  0000                     _RCREG	set	4014
    87  0000                     _RCSTAbits	set	4011
    88  0000                     _SSPADD	set	4040
    89  0000                     _SSPBUF	set	4041
    90  0000                     _SSPCON1	set	4038
    91  0000                     _SSPCON1bits	set	4038
    92  0000                     _SSPCON2	set	4037
    93  0000                     _SSPCON2bits	set	4037
    94  0000                     _SSPSTAT	set	4039
    95  0000                     _SSPSTATbits	set	4039
    96  0000                     _T0CON	set	4053
    97  0000                     _T0CONbits	set	4053
    98  0000                     _TMR0H	set	4055
    99  0000                     _TMR0L	set	4054
   100  0000                     _TMR1H	set	4047
   101  0000                     _TMR1L	set	4046
   102  0000                     _TRISB	set	3987
   103  0000                     _TRISCbits	set	3988
   104                           
   105                           	psect	nvCOMRAM
   106  00004C                     __pnvCOMRAM:
   107                           	opt stack 0
   108  00004C                     _ic_ptr:
   109                           	opt stack 0
   110  00004C                     	ds	2
   111  00004E                     _uc_ptr:
   112                           	opt stack 0
   113  00004E                     	ds	2
   114                           
   115                           ; #config settings
   116  0000                     
   117                           	psect	cinit
   118  001002                     __pcinit:
   119                           	opt stack 0
   120  001002                     start_initialization:
   121                           	opt stack 0
   122  001002                     __initialization:
   123                           	opt stack 0
   124                           
   125                           ; Clear objects allocated to BANK1 (162 bytes)
   126  001002  EE01  F000         	lfsr	0,__pbssBANK1
   127  001006  0EA2               	movlw	162
   128  001008                     clear_0:
   129  001008  6AEE               	clrf	postinc0,c
   130  00100A  06E8               	decf	wreg,f,c
   131  00100C  E1FD               	bnz	clear_0
   132                           
   133                           ; Clear objects allocated to BANK0 (54 bytes)
   134  00100E  EE00  F080         	lfsr	0,__pbssBANK0
   135  001012  0E36               	movlw	54
   136  001014                     clear_1:
   137  001014  6AEE               	clrf	postinc0,c
   138  001016  06E8               	decf	wreg,f,c
   139  001018  E1FD               	bnz	clear_1
   140                           
   141                           ; Clear objects allocated to COMRAM (12 bytes)
   142  00101A  EE00  F040         	lfsr	0,__pbssCOMRAM
   143  00101E  0E0C               	movlw	12
   144  001020                     clear_2:
   145  001020  6AEE               	clrf	postinc0,c
   146  001022  06E8               	decf	wreg,f,c
   147  001024  E1FD               	bnz	clear_2
   148                           
   149                           ; Initialize objects allocated to COMRAM (2 bytes)
   150                           ; load TBLPTR registers with __pidataCOMRAM
   151  001026  0E3E               	movlw	low __pidataCOMRAM
   152  001028  6EF6               	movwf	tblptrl,c
   153  00102A  0E14               	movlw	high __pidataCOMRAM
   154  00102C  6EF7               	movwf	tblptrh,c
   155  00102E  0E00               	movlw	low (__pidataCOMRAM shr (0+16))
   156  001030  6EF8               	movwf	tblptru,c
   157  001032  0009               	tblrd		*+	;fetch initializer
   158  001034  CFF5 F050          	movff	tablat,__pdataCOMRAM
   159  001038  0009               	tblrd		*+	;fetch initializer
   160  00103A  CFF5 F051          	movff	tablat,__pdataCOMRAM+1
   161  00103E                     end_of_initialization:
   162                           	opt stack 0
   163  00103E                     __end_of__initialization:
   164                           	opt stack 0
   165  00103E  0E00               	movlw	low (__Lmediumconst shr (0+16))
   166  001040  6EF8               	movwf	tblptru,c
   167  001042  0100               	movlb	0
   168  001044  EF3D  F004         	goto	_main	;jump to C main() function
   169                           tblptru	equ	0xFF8
   170                           tblptrh	equ	0xFF7
   171                           tblptrl	equ	0xFF6
   172                           tablat	equ	0xFF5
   173                           postinc0	equ	0xFEE
   174                           wreg	equ	0xFE8
   175                           
   176                           	psect	bssCOMRAM
   177  000040                     __pbssCOMRAM:
   178                           	opt stack 0
   179  000040                     _Send:
   180                           	opt stack 0
   181  000040                     	ds	2
   182  000042                     _i:
   183                           	opt stack 0
   184  000042                     	ds	2
   185  000044                     _length:
   186                           	opt stack 0
   187  000044                     	ds	2
   188  000046                     _swit:
   189                           	opt stack 0
   190  000046                     	ds	2
   191  000048                     _x:
   192                           	opt stack 0
   193  000048                     	ds	2
   194  00004A                     _MQ_Main_Willing_to_block:
   195                           	opt stack 0
   196  00004A                     	ds	1
   197  00004B                     _USART_Status:
   198                           	opt stack 0
   199  00004B                     	ds	1
   200                           tblptru	equ	0xFF8
   201                           tblptrh	equ	0xFF7
   202                           tblptrl	equ	0xFF6
   203                           tablat	equ	0xFF5
   204                           postinc0	equ	0xFEE
   205                           wreg	equ	0xFE8
   206                           
   207                           	psect	dataCOMRAM
   208  000050                     __pdataCOMRAM:
   209                           	opt stack 0
   210  000050                     _j:
   211                           	opt stack 0
   212  000050                     	ds	2
   213                           tblptru	equ	0xFF8
   214                           tblptrh	equ	0xFF7
   215                           tblptrl	equ	0xFF6
   216                           tablat	equ	0xFF5
   217                           postinc0	equ	0xFEE
   218                           wreg	equ	0xFE8
   219                           
   220                           	psect	bssBANK0
   221  000080                     __pbssBANK0:
   222                           	opt stack 0
   223  000080                     _ToMainLow_MQ:
   224                           	opt stack 0
   225  000080                     	ds	54
   226                           tblptru	equ	0xFF8
   227                           tblptrh	equ	0xFF7
   228                           tblptrl	equ	0xFF6
   229                           tablat	equ	0xFF5
   230                           postinc0	equ	0xFEE
   231                           wreg	equ	0xFE8
   232                           
   233                           	psect	bssBANK1
   234  000100                     __pbssBANK1:
   235                           	opt stack 0
   236  000100                     _FromMainHigh_MQ:
   237                           	opt stack 0
   238  000100                     	ds	54
   239  000136                     _FromMainLow_MQ:
   240                           	opt stack 0
   241  000136                     	ds	54
   242  00016C                     _ToMainHigh_MQ:
   243                           	opt stack 0
   244  00016C                     	ds	54
   245                           tblptru	equ	0xFF8
   246                           tblptrh	equ	0xFF7
   247                           tblptrl	equ	0xFF6
   248                           tablat	equ	0xFF5
   249                           postinc0	equ	0xFEE
   250                           wreg	equ	0xFE8
   251                           
   252                           	psect	cstackBANK1
   253  0001A2                     __pcstackBANK1:
   254                           	opt stack 0
   255  0001A2                     ??_init_queues:
   256  0001A2                     ?_in_main:
   257                           	opt stack 0
   258  0001A2                     OpenADC@config:
   259                           	opt stack 0
   260  0001A2                     memcpy@d1:
   261                           	opt stack 0
   262                           
   263                           ; 2 bytes @ 0x0
   264  0001A2                     	ds	2
   265  0001A4                     ??_block_on_To_msgqueues:
   266  0001A4                     memcpy@s1:
   267                           	opt stack 0
   268                           
   269                           ; 2 bytes @ 0x2
   270  0001A4                     	ds	2
   271  0001A6                     memcpy@n:
   272                           	opt stack 0
   273                           
   274                           ; 2 bytes @ 0x4
   275  0001A6                     	ds	2
   276  0001A8                     recv_msg@qptr:
   277                           	opt stack 0
   278                           
   279                           ; 2 bytes @ 0x6
   280  0001A8                     	ds	2
   281  0001AA                     recv_msg@maxlength:
   282                           	opt stack 0
   283                           
   284                           ; 1 bytes @ 0x8
   285  0001AA                     	ds	1
   286  0001AB                     recv_msg@msgtype:
   287                           	opt stack 0
   288                           
   289                           ; 2 bytes @ 0x9
   290  0001AB                     	ds	2
   291  0001AD                     recv_msg@data:
   292                           	opt stack 0
   293                           
   294                           ; 2 bytes @ 0xB
   295  0001AD                     	ds	2
   296  0001AF                     ??_recv_msg:
   297                           
   298                           ; 0 bytes @ 0xD
   299  0001AF                     	ds	2
   300  0001B1                     recv_msg@slot:
   301                           	opt stack 0
   302                           
   303                           ; 1 bytes @ 0xF
   304  0001B1                     	ds	1
   305  0001B2                     recv_msg@tlength:
   306                           	opt stack 0
   307                           
   308                           ; 2 bytes @ 0x10
   309  0001B2                     	ds	2
   310  0001B4                     recv_msg@qmsg:
   311                           	opt stack 0
   312                           
   313                           ; 2 bytes @ 0x12
   314  0001B4                     	ds	2
   315  0001B6                     ToMainHigh_recvmsg@msgtype:
   316                           	opt stack 0
   317                           
   318                           ; 2 bytes @ 0x14
   319  0001B6                     	ds	2
   320  0001B8                     ToMainHigh_recvmsg@data:
   321                           	opt stack 0
   322                           
   323                           ; 2 bytes @ 0x16
   324  0001B8                     	ds	2
   325  0001BA                     ToMainHigh_recvmsg@maxlength:
   326                           	opt stack 0
   327                           
   328                           ; 1 bytes @ 0x18
   329  0001BA                     	ds	1
   330  0001BB                     ??_main:
   331                           
   332                           ; 0 bytes @ 0x19
   333  0001BB                     	ds	2
   334  0001BD                     main@msgbuffer:
   335                           	opt stack 0
   336                           
   337                           ; 11 bytes @ 0x1B
   338  0001BD                     	ds	11
   339  0001C8                     main@last_reg_recvd:
   340                           	opt stack 0
   341                           
   342                           ; 1 bytes @ 0x26
   343  0001C8                     	ds	1
   344  0001C9                     main@length:
   345                           	opt stack 0
   346                           
   347                           ; 1 bytes @ 0x27
   348  0001C9                     	ds	1
   349  0001CA                     main@msgtype:
   350                           	opt stack 0
   351                           
   352                           ; 1 bytes @ 0x28
   353  0001CA                     	ds	1
   354  0001CB                     main@uc:
   355                           	opt stack 0
   356                           
   357                           ; 5 bytes @ 0x29
   358  0001CB                     	ds	5
   359  0001D0                     main@ic:
   360                           	opt stack 0
   361                           
   362                           ; 40 bytes @ 0x2E
   363  0001D0                     	ds	40
   364                           tblptru	equ	0xFF8
   365                           tblptrh	equ	0xFF7
   366                           tblptrl	equ	0xFF6
   367                           tablat	equ	0xFF5
   368                           postinc0	equ	0xFEE
   369                           wreg	equ	0xFE8
   370                           
   371                           	psect	cstackBANK0
   372  0000B6                     __pcstackBANK0:
   373                           	opt stack 0
   374  0000B6                     i2send_msg@tlength:
   375                           	opt stack 0
   376                           
   377                           ; 2 bytes @ 0x0
   378  0000B6                     	ds	2
   379  0000B8                     i2send_msg@slot:
   380                           	opt stack 0
   381                           
   382                           ; 1 bytes @ 0x2
   383  0000B8                     	ds	1
   384  0000B9                     i2send_msg@qmsg:
   385                           	opt stack 0
   386                           
   387                           ; 2 bytes @ 0x3
   388  0000B9                     	ds	2
   389  0000BB                     ToMainHigh_sendmsg@msgtype:
   390                           	opt stack 0
   391                           
   392                           ; 1 bytes @ 0x5
   393  0000BB                     	ds	1
   394  0000BC                     ToMainHigh_sendmsg@data:
   395                           	opt stack 0
   396                           
   397                           ; 2 bytes @ 0x6
   398  0000BC                     	ds	2
   399  0000BE                     ToMainHigh_sendmsg@length:
   400                           	opt stack 0
   401                           
   402                           ; 1 bytes @ 0x8
   403  0000BE                     	ds	1
   404  0000BF                     ??_i2c_int_handler:
   405                           
   406                           ; 0 bytes @ 0x9
   407  0000BF                     	ds	2
   408  0000C1                     i2c_int_handler@error_buf:
   409                           	opt stack 0
   410                           
   411                           ; 3 bytes @ 0xB
   412  0000C1                     	ds	3
   413  0000C4                     i2c_int_handler@data_written:
   414                           	opt stack 0
   415                           
   416                           ; 1 bytes @ 0xE
   417  0000C4                     	ds	1
   418  0000C5                     i2c_int_handler@overrun_error:
   419                           	opt stack 0
   420                           
   421                           ; 1 bytes @ 0xF
   422  0000C5                     	ds	1
   423  0000C6                     i2c_int_handler@i2c_data:
   424                           	opt stack 0
   425                           
   426                           ; 1 bytes @ 0x10
   427  0000C6                     	ds	1
   428  0000C7                     i2c_int_handler@msg_to_send:
   429                           	opt stack 0
   430                           
   431                           ; 1 bytes @ 0x11
   432  0000C7                     	ds	1
   433  0000C8                     i2c_int_handler@msg_ready:
   434                           	opt stack 0
   435                           
   436                           ; 1 bytes @ 0x12
   437  0000C8                     	ds	1
   438  0000C9                     i2c_int_handler@data_read:
   439                           	opt stack 0
   440                           
   441                           ; 1 bytes @ 0x13
   442  0000C9                     	ds	1
   443  0000CA                     ??_InterruptHandlerHigh:
   444                           
   445                           ; 0 bytes @ 0x14
   446  0000CA                     	ds	15
   447  0000D9                     ?_in_high_int:
   448                           	opt stack 0
   449  0000D9                     i2c_configure_slave@addr:
   450                           	opt stack 0
   451  0000D9                     OpenADC@config2:
   452                           	opt stack 0
   453  0000D9                     OpenTimer0@config:
   454                           	opt stack 0
   455  0000D9                     Delay1KTCYx@unit:
   456                           	opt stack 0
   457  0000D9                     init_queue@qptr:
   458                           	opt stack 0
   459  0000D9                     check_msg@qptr:
   460                           	opt stack 0
   461  0000D9                     init_i2c@ic:
   462                           	opt stack 0
   463  0000D9                     init_uart_recv@uc:
   464                           	opt stack 0
   465  0000D9                     memcpy@d:
   466                           	opt stack 0
   467                           
   468                           ; 2 bytes @ 0x23
   469  0000D9                     	ds	1
   470  0000DA                     OpenADC@portconfig:
   471                           	opt stack 0
   472                           
   473                           ; 1 bytes @ 0x24
   474  0000DA                     	ds	1
   475  0000DB                     ??_OpenADC:
   476  0000DB                     ??_init_queue:
   477  0000DB                     ??_check_msg:
   478  0000DB                     ?_in_low_int:
   479                           	opt stack 0
   480  0000DB                     memcpy@s:
   481                           	opt stack 0
   482                           
   483                           ; 2 bytes @ 0x25
   484  0000DB                     	ds	1
   485  0000DC                     init_queue@i:
   486                           	opt stack 0
   487                           
   488                           ; 1 bytes @ 0x26
   489  0000DC                     	ds	1
   490  0000DD                     tblptru	equ	0xFF8
   491                           tblptrh	equ	0xFF7
   492                           tblptrl	equ	0xFF6
   493                           tablat	equ	0xFF5
   494                           postinc0	equ	0xFEE
   495                           wreg	equ	0xFE8
   496                           
   497                           ; 0 bytes @ 0x27
   498                           
   499                           	psect	cstackCOMRAM
   500  000001                     __pcstackCOMRAM:
   501                           	opt stack 0
   502  000001                     ?_ReadTimer1:
   503                           	opt stack 0
   504  000001                     ReadUSART@data:
   505                           	opt stack 0
   506  000001                     WriteTimer1@timer1:
   507                           	opt stack 0
   508  000001                     i1memcpy@d1:
   509                           	opt stack 0
   510                           
   511                           ; 2 bytes @ 0x0
   512  000001                     	ds	2
   513  000003                     ReadTimer1@timer:
   514                           	opt stack 0
   515  000003                     WriteTimer1@timer:
   516                           	opt stack 0
   517  000003                     i1memcpy@s1:
   518                           	opt stack 0
   519                           
   520                           ; 2 bytes @ 0x2
   521  000003                     	ds	2
   522  000005                     i1memcpy@n:
   523                           	opt stack 0
   524                           
   525                           ; 2 bytes @ 0x4
   526  000005                     	ds	2
   527  000007                     i1memcpy@d:
   528                           	opt stack 0
   529                           
   530                           ; 2 bytes @ 0x6
   531  000007                     	ds	2
   532  000009                     i1memcpy@s:
   533                           	opt stack 0
   534                           
   535                           ; 2 bytes @ 0x8
   536  000009                     	ds	2
   537  00000B                     send_msg@qptr:
   538                           	opt stack 0
   539                           
   540                           ; 2 bytes @ 0xA
   541  00000B                     	ds	2
   542  00000D                     send_msg@length:
   543                           	opt stack 0
   544                           
   545                           ; 1 bytes @ 0xC
   546  00000D                     	ds	1
   547  00000E                     send_msg@msgtype:
   548                           	opt stack 0
   549                           
   550                           ; 1 bytes @ 0xD
   551  00000E                     	ds	1
   552  00000F                     send_msg@data:
   553                           	opt stack 0
   554                           
   555                           ; 2 bytes @ 0xE
   556  00000F                     	ds	2
   557  000011                     ??_send_msg:
   558                           
   559                           ; 0 bytes @ 0x10
   560  000011                     	ds	1
   561  000012                     send_msg@tlength:
   562                           	opt stack 0
   563                           
   564                           ; 2 bytes @ 0x11
   565  000012                     	ds	2
   566  000014                     send_msg@slot:
   567                           	opt stack 0
   568                           
   569                           ; 1 bytes @ 0x13
   570  000014                     	ds	1
   571  000015                     send_msg@qmsg:
   572                           	opt stack 0
   573                           
   574                           ; 2 bytes @ 0x14
   575  000015                     	ds	2
   576  000017                     ToMainLow_sendmsg@msgtype:
   577                           	opt stack 0
   578                           
   579                           ; 1 bytes @ 0x16
   580  000017                     	ds	1
   581  000018                     ToMainLow_sendmsg@data:
   582                           	opt stack 0
   583                           
   584                           ; 2 bytes @ 0x17
   585  000018                     	ds	2
   586  00001A                     ToMainLow_sendmsg@length:
   587                           	opt stack 0
   588                           
   589                           ; 1 bytes @ 0x19
   590  00001A                     	ds	1
   591  00001B                     ??_timer1_int_handler:
   592  00001B                     ??_uart_recv_int_handler:
   593                           
   594                           ; 0 bytes @ 0x1A
   595  00001B                     	ds	1
   596  00001C                     timer1_int_handler@result:
   597                           	opt stack 0
   598                           
   599                           ; 2 bytes @ 0x1B
   600  00001C                     	ds	2
   601  00001E                     ??_InterruptHandlerLow:
   602                           
   603                           ; 0 bytes @ 0x1D
   604  00001E                     	ds	17
   605  00002F                     ?_ReadADC:
   606                           	opt stack 0
   607  00002F                     ?i2_in_high_int:
   608                           	opt stack 0
   609  00002F                     handle_start@data_read:
   610                           	opt stack 0
   611  00002F                     Handle_i2c_data_save@msg:
   612                           	opt stack 0
   613  00002F                     start_i2c_slave_reply@msg:
   614                           	opt stack 0
   615  00002F                     WriteTimer0@timer0:
   616                           	opt stack 0
   617  00002F                     i2check_msg@qptr:
   618                           	opt stack 0
   619  00002F                     i2memcpy@d1:
   620                           	opt stack 0
   621                           
   622                           ; 2 bytes @ 0x2E
   623  00002F                     	ds	2
   624  000031                     ??_Handle_i2c_data_save:
   625  000031                     ??_start_i2c_slave_reply:
   626  000031                     ??i2_check_msg:
   627  000031                     ?i2_in_low_int:
   628                           	opt stack 0
   629  000031                     WriteTimer0@timer:
   630                           	opt stack 0
   631  000031                     i2memcpy@s1:
   632                           	opt stack 0
   633                           
   634                           ; 2 bytes @ 0x30
   635  000031                     	ds	1
   636  000032                     ??_adc_int_handler:
   637                           
   638                           ; 0 bytes @ 0x31
   639  000032                     	ds	1
   640  000033                     i2memcpy@n:
   641                           	opt stack 0
   642                           
   643                           ; 2 bytes @ 0x32
   644  000033                     	ds	1
   645  000034                     start_i2c_slave_reply@length:
   646                           	opt stack 0
   647  000034                     adc_int_handler@result:
   648                           	opt stack 0
   649                           
   650                           ; 2 bytes @ 0x33
   651  000034                     	ds	1
   652  000035                     i2memcpy@d:
   653                           	opt stack 0
   654                           
   655                           ; 2 bytes @ 0x34
   656  000035                     	ds	2
   657  000037                     i2memcpy@s:
   658                           	opt stack 0
   659                           
   660                           ; 2 bytes @ 0x36
   661  000037                     	ds	2
   662  000039                     i2send_msg@qptr:
   663                           	opt stack 0
   664                           
   665                           ; 2 bytes @ 0x38
   666  000039                     	ds	2
   667  00003B                     i2send_msg@length:
   668                           	opt stack 0
   669                           
   670                           ; 1 bytes @ 0x3A
   671  00003B                     	ds	1
   672  00003C                     i2send_msg@msgtype:
   673                           	opt stack 0
   674                           
   675                           ; 1 bytes @ 0x3B
   676  00003C                     	ds	1
   677  00003D                     i2send_msg@data:
   678                           	opt stack 0
   679                           
   680                           ; 2 bytes @ 0x3C
   681  00003D                     	ds	2
   682  00003F                     ??i2_send_msg:
   683                           
   684                           ; 0 bytes @ 0x3E
   685  00003F                     	ds	1
   686  000040                     tblptru	equ	0xFF8
   687                           tblptrh	equ	0xFF7
   688                           tblptrl	equ	0xFF6
   689                           tablat	equ	0xFF5
   690                           postinc0	equ	0xFEE
   691                           wreg	equ	0xFE8
   692                           
   693                           ; 0 bytes @ 0x3F
   694 ;;
   695 ;;Main: autosize = 0, tempsize = 2, incstack = 0, save=0
   696 ;;
   697 ;; *************** function _main *****************
   698 ;; Defined at:
   699 ;;		line 187 in file "../src/main.c"
   700 ;; Parameters:    Size  Location     Type
   701 ;;		None
   702 ;; Auto vars:     Size  Location     Type
   703 ;;  ic             40   46[BANK1 ] struct __i2c_comm
   704 ;;  msgbuffer      11   27[BANK1 ] unsigned char [11]
   705 ;;  uc              5   41[BANK1 ] struct __uart_comm
   706 ;;  t0thread_dat    2    0        struct __timer0_thread_s
   707 ;;  uthread_data    2    0        struct __uart_thread_str
   708 ;;  msgtype         1   40[BANK1 ] unsigned char 
   709 ;;  length          1   39[BANK1 ] char 
   710 ;;  last_reg_rec    1   38[BANK1 ] unsigned char 
   711 ;;  i               1    0        unsigned char 
   712 ;;  c               1    0        unsigned char 
   713 ;; Return value:  Size  Location     Type
   714 ;;		None               void
   715 ;; Registers used:
   716 ;;		wreg, fsr1l, fsr1h, fsr2l, fsr2h, status,2, status,0, prodl, prodh, cstack
   717 ;; Tracked objects:
   718 ;;		On entry : 0/0
   719 ;;		On exit  : 0/0
   720 ;;		Unchanged: 0/0
   721 ;; Data sizes:     COMRAM   BANK0   BANK1   BANK2   BANK3
   722 ;;      Params:         0       0       0       0       0
   723 ;;      Locals:         0       0      59       0       0
   724 ;;      Temps:          0       0       2       0       0
   725 ;;      Totals:         0       0      61       0       0
   726 ;;Total ram usage:       61 bytes
   727 ;; Hardware stack levels required when called:   14
   728 ;; This function calls:
   729 ;;		_OpenADC
   730 ;;		_OpenTimer0
   731 ;;		_ToMainHigh_recvmsg
   732 ;;		_block_on_To_msgqueues
   733 ;;		_enable_interrupts
   734 ;;		_i2c_configure_slave
   735 ;;		_init_i2c
   736 ;;		_init_queues
   737 ;;		_init_uart_recv
   738 ;; This function is called by:
   739 ;;		Startup code after reset
   740 ;; This function uses a non-reentrant model
   741 ;;
   742                           
   743                           	psect	text0
   744  00087A                     __ptext0:
   745                           	opt stack 0
   746  00087A                     _main:
   747                           	opt stack 17
   748                           
   749                           ;main.c: 188: char c;
   750                           ;main.c: 189: signed char length;
   751                           ;main.c: 190: unsigned char msgtype;
   752                           ;main.c: 191: unsigned char last_reg_recvd;
   753                           ;main.c: 192: uart_comm uc;
   754                           ;main.c: 193: i2c_comm ic;
   755                           ;main.c: 194: unsigned char msgbuffer[10 + 1];
   756                           ;main.c: 195: unsigned char i;
   757                           ;main.c: 196: uart_thread_struct uthread_data;
   758                           ;main.c: 198: timer0_thread_struct t0thread_data;
   759                           ;main.c: 206: OSCCON = 0x82;
   760                           
   761                           ;incstack = 0
   762  00087A  0E82               	movlw	130
   763  00087C  6ED3               	movwf	4051,c	;volatile
   764                           
   765                           ;main.c: 207: OSCTUNEbits.PLLEN = 0;
   766  00087E  9C9B               	bcf	3995,6,c	;volatile
   767                           
   768                           ;main.c: 225: init_uart_recv(&uc);
   769  000880  0101               	movlb	1	; () banked
   770  000882  0E01               	movlw	high main@uc
   771  000884  0100               	movlb	0	; () banked
   772  000886  0100               	movlb	0	; () banked
   773  000888  6FDA               	movwf	(init_uart_recv@uc+1)& (0+255),b
   774  00088A  0101               	movlb	1	; () banked
   775  00088C  0ECB               	movlw	low main@uc
   776  00088E  0100               	movlb	0	; () banked
   777  000890  0100               	movlb	0	; () banked
   778  000892  6FD9               	movwf	init_uart_recv@uc& (0+255),b
   779  000894  ECB5  F009         	call	_init_uart_recv	;wreg free
   780                           
   781                           ;main.c: 228: init_i2c(&ic);
   782  000898  0101               	movlb	1	; () banked
   783  00089A  0E01               	movlw	high main@ic
   784  00089C  0100               	movlb	0	; () banked
   785  00089E  0100               	movlb	0	; () banked
   786  0008A0  6FDA               	movwf	(init_i2c@ic+1)& (0+255),b
   787  0008A2  0101               	movlb	1	; () banked
   788  0008A4  0ED0               	movlw	low main@ic
   789  0008A6  0100               	movlb	0	; () banked
   790  0008A8  0100               	movlb	0	; () banked
   791  0008AA  6FD9               	movwf	init_i2c@ic& (0+255),b
   792  0008AC  EC1D  F006         	call	_init_i2c	;wreg free
   793                           
   794                           ;main.c: 234: init_queues();
   795  0008B0  EC74  F007         	call	_init_queues	;wreg free
   796                           
   797                           ;main.c: 238: TRISB = 0x0;
   798  0008B4  0E00               	movlw	0
   799  0008B6  6E93               	movwf	3987,c	;volatile
   800                           
   801                           ;main.c: 239: LATB = 0x0;
   802  0008B8  0E00               	movlw	0
   803  0008BA  6E8A               	movwf	3978,c	;volatile
   804                           
   805                           ;main.c: 252: OpenTimer0(0b11111111 & 0b11111111 & 0b11011111 & 0b11111111);
   806  0008BC  0EDF               	movlw	223
   807  0008BE  EC52  F009         	call	_OpenTimer0
   808                           
   809                           ;main.c: 253: OpenADC(0b11011111 & 0b11111111 & 0b11111101, 0b10000111 & 0b11111111 & 0b
      +                          11111110 & 0b11111101, 0b11111111);
   810  0008C2  0101               	movlb	1	; () banked
   811  0008C4  6FBB               	movwf	??_main& (0+255),b
   812  0008C6  0E84               	movlw	132
   813  0008C8  0100               	movlb	0	; () banked
   814  0008CA  0100               	movlb	0	; () banked
   815  0008CC  6FD9               	movwf	OpenADC@config2& (0+255),b
   816  0008CE  0101               	movlb	1	; () banked
   817  0008D0  51BB               	movf	??_main& (0+255),w,b
   818  0008D2  0101               	movlb	1	; () banked
   819  0008D4  6FBC               	movwf	(??_main+1)& (0+255),b
   820  0008D6  0EFF               	movlw	255
   821  0008D8  0100               	movlb	0	; () banked
   822  0008DA  0100               	movlb	0	; () banked
   823  0008DC  6FDA               	movwf	OpenADC@portconfig& (0+255),b
   824  0008DE  0101               	movlb	1	; () banked
   825  0008E0  51BC               	movf	(??_main+1)& (0+255),w,b
   826  0008E2  0EDD               	movlw	221
   827  0008E4  ECB6  F006         	call	_OpenADC
   828                           
   829                           ;main.c: 254: (PIR1bits.ADIF=0,INTCONbits.PEIE=1,PIE1bits.ADIE=1);
   830  0008E8  9C9E               	bcf	3998,6,c	;volatile
   831  0008EA  8CF2               	bsf	intcon,6,c	;volatile
   832  0008EC  8C9D               	bsf	3997,6,c	;volatile
   833                           
   834                           ;main.c: 270: IPR1bits.TMR1IP = 0;
   835  0008EE  909F               	bcf	3999,0,c	;volatile
   836                           
   837                           ;main.c: 272: IPR1bits.RCIP = 0;
   838  0008F0  9A9F               	bcf	3999,5,c	;volatile
   839                           
   840                           ;main.c: 274: IPR1bits.SSPIP = 1;
   841  0008F2  869F               	bsf	3999,3,c	;volatile
   842                           
   843                           ;main.c: 283: i2c_configure_slave(0x9E);
   844  0008F4  0E9E               	movlw	158
   845  0008F6  EC7C  F009         	call	_i2c_configure_slave
   846                           
   847                           ;main.c: 298: PIE1bits.SSPIE = 1;
   848  0008FA  869D               	bsf	3997,3,c	;volatile
   849                           
   850                           ;main.c: 316: enable_interrupts();
   851  0008FC  EC16  F00A         	call	_enable_interrupts	;wreg free
   852  000900                     l2767:
   853                           
   854                           ;main.c: 340: block_on_To_msgqueues();
   855  000900  ECF8  F006         	call	_block_on_To_msgqueues	;wreg free
   856                           
   857                           ;main.c: 347: length = ToMainHigh_recvmsg(10, &msgtype, (void *) msgbuffer);
   858  000904  0101               	movlb	1	; () banked
   859  000906  0E01               	movlw	high main@msgtype
   860  000908  0101               	movlb	1	; () banked
   861  00090A  0101               	movlb	1	; () banked
   862  00090C  6FB7               	movwf	(ToMainHigh_recvmsg@msgtype+1)& (0+255),b
   863  00090E  0101               	movlb	1	; () banked
   864  000910  0ECA               	movlw	low main@msgtype
   865  000912  0101               	movlb	1	; () banked
   866  000914  0101               	movlb	1	; () banked
   867  000916  6FB6               	movwf	ToMainHigh_recvmsg@msgtype& (0+255),b
   868  000918  0101               	movlb	1	; () banked
   869  00091A  0E01               	movlw	high main@msgbuffer
   870  00091C  0101               	movlb	1	; () banked
   871  00091E  0101               	movlb	1	; () banked
   872  000920  6FB9               	movwf	(ToMainHigh_recvmsg@data+1)& (0+255),b
   873  000922  0101               	movlb	1	; () banked
   874  000924  0EBD               	movlw	low main@msgbuffer
   875  000926  0101               	movlb	1	; () banked
   876  000928  0101               	movlb	1	; () banked
   877  00092A  6FB8               	movwf	ToMainHigh_recvmsg@data& (0+255),b
   878  00092C  0E0A               	movlw	10
   879  00092E  EC8B  F008         	call	_ToMainHigh_recvmsg
   880  000932  0101               	movlb	1	; () banked
   881  000934  0101               	movlb	1	; () banked
   882  000936  6FC9               	movwf	main@length& (0+255),b
   883                           
   884                           ; BSR set to: 1
   885                           ;main.c: 348: if (length < 0) {
   886  000938  0101               	movlb	1	; () banked
   887  00093A  0101               	movlb	1	; () banked
   888  00093C  BFC9               	btfsc	main@length& (0+255),7,b
   889  00093E  D7E0               	goto	l2767
   890  000940  D003               	goto	l2777
   891  000942                     l95:
   892                           
   893                           ; BSR set to: 1
   894                           ;main.c: 356: case 41:
   895                           ;main.c: 357: {
   896                           ;main.c: 360: last_reg_recvd = msgbuffer[0];
   897  000942  C1BD  F1C8         	movff	main@msgbuffer,main@last_reg_recvd
   898                           
   899                           ;main.c: 361: break;
   900  000946  D7DC               	goto	l2767
   901  000948                     l2777:
   902                           
   903                           ; BSR set to: 1
   904  000948  0101               	movlb	1	; () banked
   905  00094A  0101               	movlb	1	; () banked
   906  00094C  51CA               	movf	main@msgtype& (0+255),w,b
   907                           
   908                           ; Switch size 1, requested type "space"
   909                           ; Number of cases is 3, Range of values is 40 to 42
   910                           ; switch strategies available:
   911                           ; Name         Instructions Cycles
   912                           ; simple_byte           10     6 (average)
   913                           ;	Chosen strategy is simple_byte
   914  00094E  0A28               	xorlw	40	; case 40
   915  000950  B4D8               	btfsc	status,2,c
   916  000952  D7F7               	goto	l95
   917  000954  0A01               	xorlw	1	; case 41
   918  000956  B4D8               	btfsc	status,2,c
   919  000958  D7F4               	goto	l95
   920  00095A  0A03               	xorlw	3	; case 42
   921  00095C  D7D1               	goto	l2767
   922  00095E                     __end_of_main:
   923                           	opt stack 0
   924                           tblptru	equ	0xFF8
   925                           tblptrh	equ	0xFF7
   926                           tblptrl	equ	0xFF6
   927                           tablat	equ	0xFF5
   928                           intcon	equ	0xFF2
   929                           postinc0	equ	0xFEE
   930                           wreg	equ	0xFE8
   931                           status	equ	0xFD8
   932                           
   933 ;; *************** function _init_uart_recv *****************
   934 ;; Defined at:
   935 ;;		line 49 in file "../src/my_uart.c"
   936 ;; Parameters:    Size  Location     Type
   937 ;;  uc              2   35[BANK0 ] PTR struct __uart_comm
   938 ;;		 -> main@uc(5), 
   939 ;; Auto vars:     Size  Location     Type
   940 ;;		None
   941 ;; Return value:  Size  Location     Type
   942 ;;		None               void
   943 ;; Registers used:
   944 ;;		wreg, fsr2l, fsr2h, status,2, status,0
   945 ;; Tracked objects:
   946 ;;		On entry : 0/0
   947 ;;		On exit  : 0/0
   948 ;;		Unchanged: 0/0
   949 ;; Data sizes:     COMRAM   BANK0   BANK1   BANK2   BANK3
   950 ;;      Params:         0       2       0       0       0
   951 ;;      Locals:         0       0       0       0       0
   952 ;;      Temps:          0       0       0       0       0
   953 ;;      Totals:         0       2       0       0       0
   954 ;;Total ram usage:        2 bytes
   955 ;; Hardware stack levels used:    1
   956 ;; Hardware stack levels required when called:   10
   957 ;; This function calls:
   958 ;;		Nothing
   959 ;; This function is called by:
   960 ;;		_main
   961 ;; This function uses a non-reentrant model
   962 ;;
   963                           
   964                           	psect	text1
   965  00136A                     __ptext1:
   966                           	opt stack 0
   967  00136A                     _init_uart_recv:
   968                           	opt stack 20
   969                           
   970                           ;my_uart.c: 50: uc_ptr = uc;
   971                           
   972                           ; BSR set to: 1
   973                           ;incstack = 0
   974  00136A  0100               	movlb	0	; () banked
   975  00136C  C0DA  F04F         	movff	init_uart_recv@uc+1,_uc_ptr+1
   976  001370  0100               	movlb	0	; () banked
   977  001372  C0D9  F04E         	movff	init_uart_recv@uc,_uc_ptr
   978                           
   979                           ; BSR set to: 0
   980                           ;my_uart.c: 51: uc_ptr->buflen = 0;
   981  001376  EE20 F004          	lfsr	2,4
   982  00137A  504E               	movf	_uc_ptr,w,c
   983  00137C  26D9               	addwf	fsr2l,f,c
   984  00137E  504F               	movf	_uc_ptr+1,w,c
   985  001380  22DA               	addwfc	fsr2h,f,c
   986  001382  0E00               	movlw	0
   987  001384  6EDF               	movwf	indf2,c
   988                           
   989                           ; BSR set to: 0
   990  001386  0012               	return	
   991  001388                     __end_of_init_uart_recv:
   992                           	opt stack 0
   993                           tblptru	equ	0xFF8
   994                           tblptrh	equ	0xFF7
   995                           tblptrl	equ	0xFF6
   996                           tablat	equ	0xFF5
   997                           intcon	equ	0xFF2
   998                           postinc0	equ	0xFEE
   999                           wreg	equ	0xFE8
  1000                           indf2	equ	0xFDF
  1001                           fsr2h	equ	0xFDA
  1002                           fsr2l	equ	0xFD9
  1003                           status	equ	0xFD8
  1004                           
  1005 ;; *************** function _init_queues *****************
  1006 ;; Defined at:
  1007 ;;		line 194 in file "../src/messages.c"
  1008 ;; Parameters:    Size  Location     Type
  1009 ;;		None
  1010 ;; Auto vars:     Size  Location     Type
  1011 ;;		None
  1012 ;; Return value:  Size  Location     Type
  1013 ;;		None               void
  1014 ;; Registers used:
  1015 ;;		wreg, fsr2l, fsr2h, status,2, status,0, prodl, prodh, cstack
  1016 ;; Tracked objects:
  1017 ;;		On entry : 0/0
  1018 ;;		On exit  : 0/0
  1019 ;;		Unchanged: 0/0
  1020 ;; Data sizes:     COMRAM   BANK0   BANK1   BANK2   BANK3
  1021 ;;      Params:         0       0       0       0       0
  1022 ;;      Locals:         0       0       0       0       0
  1023 ;;      Temps:          0       0       1       0       0
  1024 ;;      Totals:         0       0       1       0       0
  1025 ;;Total ram usage:        1 bytes
  1026 ;; Hardware stack levels used:    1
  1027 ;; Hardware stack levels required when called:   11
  1028 ;; This function calls:
  1029 ;;		_init_queue
  1030 ;; This function is called by:
  1031 ;;		_main
  1032 ;; This function uses a non-reentrant model
  1033 ;;
  1034                           
  1035                           	psect	text2
  1036  000EE8                     __ptext2:
  1037                           	opt stack 0
  1038  000EE8                     _init_queues:
  1039                           	opt stack 19
  1040                           
  1041                           ;messages.c: 195: MQ_Main_Willing_to_block = 0;
  1042                           
  1043                           ; BSR set to: 0
  1044                           ;incstack = 0
  1045  000EE8  0101               	movlb	1	; () banked
  1046  000EEA  6FA2               	movwf	??_init_queues& (0+255),b
  1047  000EEC  0E00               	movlw	0
  1048  000EEE  6E4A               	movwf	_MQ_Main_Willing_to_block,c
  1049  000EF0  0101               	movlb	1	; () banked
  1050  000EF2  51A2               	movf	??_init_queues& (0+255),w,b
  1051                           
  1052                           ; BSR set to: 1
  1053                           ;messages.c: 196: init_queue(&ToMainLow_MQ);
  1054  000EF4  0100               	movlb	0	; () banked
  1055  000EF6  0E00               	movlw	high _ToMainLow_MQ
  1056  000EF8  0100               	movlb	0	; () banked
  1057  000EFA  0100               	movlb	0	; () banked
  1058  000EFC  6FDA               	movwf	(init_queue@qptr+1)& (0+255),b
  1059  000EFE  0100               	movlb	0	; () banked
  1060  000F00  0E80               	movlw	low _ToMainLow_MQ
  1061  000F02  0100               	movlb	0	; () banked
  1062  000F04  0100               	movlb	0	; () banked
  1063  000F06  6FD9               	movwf	init_queue@qptr& (0+255),b
  1064  000F08  EC37  F007         	call	_init_queue	;wreg free
  1065                           
  1066                           ;messages.c: 197: init_queue(&ToMainHigh_MQ);
  1067  000F0C  0101               	movlb	1	; () banked
  1068  000F0E  0E01               	movlw	high _ToMainHigh_MQ
  1069  000F10  0100               	movlb	0	; () banked
  1070  000F12  0100               	movlb	0	; () banked
  1071  000F14  6FDA               	movwf	(init_queue@qptr+1)& (0+255),b
  1072  000F16  0101               	movlb	1	; () banked
  1073  000F18  0E6C               	movlw	low _ToMainHigh_MQ
  1074  000F1A  0100               	movlb	0	; () banked
  1075  000F1C  0100               	movlb	0	; () banked
  1076  000F1E  6FD9               	movwf	init_queue@qptr& (0+255),b
  1077  000F20  EC37  F007         	call	_init_queue	;wreg free
  1078                           
  1079                           ;messages.c: 198: init_queue(&FromMainLow_MQ);
  1080  000F24  0101               	movlb	1	; () banked
  1081  000F26  0E01               	movlw	high _FromMainLow_MQ
  1082  000F28  0100               	movlb	0	; () banked
  1083  000F2A  0100               	movlb	0	; () banked
  1084  000F2C  6FDA               	movwf	(init_queue@qptr+1)& (0+255),b
  1085  000F2E  0101               	movlb	1	; () banked
  1086  000F30  0E36               	movlw	low _FromMainLow_MQ
  1087  000F32  0100               	movlb	0	; () banked
  1088  000F34  0100               	movlb	0	; () banked
  1089  000F36  6FD9               	movwf	init_queue@qptr& (0+255),b
  1090  000F38  EC37  F007         	call	_init_queue	;wreg free
  1091                           
  1092                           ;messages.c: 199: init_queue(&FromMainHigh_MQ);
  1093  000F3C  0101               	movlb	1	; () banked
  1094  000F3E  0E01               	movlw	high _FromMainHigh_MQ
  1095  000F40  0100               	movlb	0	; () banked
  1096  000F42  0100               	movlb	0	; () banked
  1097  000F44  6FDA               	movwf	(init_queue@qptr+1)& (0+255),b
  1098  000F46  0101               	movlb	1	; () banked
  1099  000F48  0E00               	movlw	low _FromMainHigh_MQ
  1100  000F4A  0100               	movlb	0	; () banked
  1101  000F4C  0100               	movlb	0	; () banked
  1102  000F4E  6FD9               	movwf	init_queue@qptr& (0+255),b
  1103  000F50  EC37  F007         	call	_init_queue	;wreg free
  1104  000F54  0012               	return	
  1105  000F56                     __end_of_init_queues:
  1106                           	opt stack 0
  1107                           tblptru	equ	0xFF8
  1108                           tblptrh	equ	0xFF7
  1109                           tblptrl	equ	0xFF6
  1110                           tablat	equ	0xFF5
  1111                           intcon	equ	0xFF2
  1112                           postinc0	equ	0xFEE
  1113                           wreg	equ	0xFE8
  1114                           indf2	equ	0xFDF
  1115                           fsr2h	equ	0xFDA
  1116                           fsr2l	equ	0xFD9
  1117                           status	equ	0xFD8
  1118                           
  1119 ;; *************** function _init_queue *****************
  1120 ;; Defined at:
  1121 ;;		line 14 in file "../src/messages.c"
  1122 ;; Parameters:    Size  Location     Type
  1123 ;;  qptr            2   35[BANK0 ] PTR struct __msg_queue
  1124 ;;		 -> FromMainHigh_MQ(54), FromMainLow_MQ(54), ToMainHigh_MQ(54), ToMainLow_MQ(54), 
  1125 ;; Auto vars:     Size  Location     Type
  1126 ;;  i               1   38[BANK0 ] unsigned char 
  1127 ;; Return value:  Size  Location     Type
  1128 ;;		None               void
  1129 ;; Registers used:
  1130 ;;		wreg, fsr2l, fsr2h, status,2, status,0, prodl, prodh
  1131 ;; Tracked objects:
  1132 ;;		On entry : 0/0
  1133 ;;		On exit  : 0/0
  1134 ;;		Unchanged: 0/0
  1135 ;; Data sizes:     COMRAM   BANK0   BANK1   BANK2   BANK3
  1136 ;;      Params:         0       2       0       0       0
  1137 ;;      Locals:         0       1       0       0       0
  1138 ;;      Temps:          0       1       0       0       0
  1139 ;;      Totals:         0       4       0       0       0
  1140 ;;Total ram usage:        4 bytes
  1141 ;; Hardware stack levels used:    1
  1142 ;; Hardware stack levels required when called:   10
  1143 ;; This function calls:
  1144 ;;		Nothing
  1145 ;; This function is called by:
  1146 ;;		_init_queues
  1147 ;; This function uses a non-reentrant model
  1148 ;;
  1149                           
  1150                           	psect	text3
  1151  000E6E                     __ptext3:
  1152                           	opt stack 0
  1153  000E6E                     _init_queue:
  1154                           	opt stack 19
  1155                           
  1156                           ;messages.c: 15: unsigned char i;
  1157                           ;messages.c: 17: qptr->cur_write_ind = 0;
  1158                           
  1159                           ;incstack = 0
  1160  000E6E  0100               	movlb	0	; () banked
  1161  000E70  EE20 F034          	lfsr	2,52
  1162  000E74  0100               	movlb	0	; () banked
  1163  000E76  51D9               	movf	init_queue@qptr& (0+255),w,b
  1164  000E78  26D9               	addwf	fsr2l,f,c
  1165  000E7A  0100               	movlb	0	; () banked
  1166  000E7C  51DA               	movf	(init_queue@qptr+1)& (0+255),w,b
  1167  000E7E  22DA               	addwfc	fsr2h,f,c
  1168  000E80  0E00               	movlw	0
  1169  000E82  6EDF               	movwf	indf2,c
  1170                           
  1171                           ;messages.c: 18: qptr->cur_read_ind = 0;
  1172  000E84  0100               	movlb	0	; () banked
  1173  000E86  EE20 F035          	lfsr	2,53
  1174  000E8A  0100               	movlb	0	; () banked
  1175  000E8C  51D9               	movf	init_queue@qptr& (0+255),w,b
  1176  000E8E  26D9               	addwf	fsr2l,f,c
  1177  000E90  0100               	movlb	0	; () banked
  1178  000E92  51DA               	movf	(init_queue@qptr+1)& (0+255),w,b
  1179  000E94  22DA               	addwfc	fsr2h,f,c
  1180  000E96  0E00               	movlw	0
  1181  000E98  6EDF               	movwf	indf2,c
  1182                           
  1183                           ; BSR set to: 0
  1184                           ;messages.c: 19: for (i = 0; i < 4; i++) {
  1185  000E9A  0100               	movlb	0	; () banked
  1186  000E9C  6FDB               	movwf	??_init_queue& (0+255),b
  1187  000E9E  0E00               	movlw	0
  1188  000EA0  0100               	movlb	0	; () banked
  1189  000EA2  0100               	movlb	0	; () banked
  1190  000EA4  6FDC               	movwf	init_queue@i& (0+255),b
  1191  000EA6  0100               	movlb	0	; () banked
  1192  000EA8  51DB               	movf	??_init_queue& (0+255),w,b
  1193                           
  1194                           ; BSR set to: 0
  1195  000EAA  0E03               	movlw	3
  1196  000EAC  0100               	movlb	0	; () banked
  1197  000EAE  0100               	movlb	0	; () banked
  1198  000EB0  65DC               	cpfsgt	init_queue@i& (0+255),b
  1199  000EB2  D001               	goto	l2259
  1200  000EB4  0012               	return	
  1201  000EB6                     l2259:
  1202                           
  1203                           ; BSR set to: 0
  1204                           ;messages.c: 20: qptr->queue[i].full = 0;
  1205  000EB6  0100               	movlb	0	; () banked
  1206  000EB8  0100               	movlb	0	; () banked
  1207  000EBA  51DC               	movf	init_queue@i& (0+255),w,b
  1208  000EBC  0D0D               	mullw	13
  1209  000EBE  50F3               	movf	prodl,w,c
  1210  000EC0  0100               	movlb	0	; () banked
  1211  000EC2  0100               	movlb	0	; () banked
  1212  000EC4  25D9               	addwf	init_queue@qptr& (0+255),w,b
  1213  000EC6  6ED9               	movwf	fsr2l,c
  1214  000EC8  50F4               	movf	prodh,w,c
  1215  000ECA  0100               	movlb	0	; () banked
  1216  000ECC  0100               	movlb	0	; () banked
  1217  000ECE  21DA               	addwfc	(init_queue@qptr+1)& (0+255),w,b
  1218  000ED0  6EDA               	movwf	fsr2h,c
  1219  000ED2  0E00               	movlw	0
  1220  000ED4  6EDF               	movwf	indf2,c
  1221                           
  1222                           ; BSR set to: 0
  1223  000ED6  0100               	movlb	0	; () banked
  1224  000ED8  0100               	movlb	0	; () banked
  1225  000EDA  2BDC               	incf	init_queue@i& (0+255),f,b
  1226                           
  1227                           ; BSR set to: 0
  1228  000EDC  0E03               	movlw	3
  1229  000EDE  0100               	movlb	0	; () banked
  1230  000EE0  0100               	movlb	0	; () banked
  1231  000EE2  65DC               	cpfsgt	init_queue@i& (0+255),b
  1232  000EE4  D7E8               	goto	l2259
  1233  000EE6  0012               	return	
  1234  000EE8                     __end_of_init_queue:
  1235                           	opt stack 0
  1236                           tblptru	equ	0xFF8
  1237                           tblptrh	equ	0xFF7
  1238                           tblptrl	equ	0xFF6
  1239                           tablat	equ	0xFF5
  1240                           prodh	equ	0xFF4
  1241                           prodl	equ	0xFF3
  1242                           intcon	equ	0xFF2
  1243                           postinc0	equ	0xFEE
  1244                           wreg	equ	0xFE8
  1245                           indf2	equ	0xFDF
  1246                           fsr2h	equ	0xFDA
  1247                           fsr2l	equ	0xFD9
  1248                           status	equ	0xFD8
  1249                           
  1250 ;; *************** function _init_i2c *****************
  1251 ;; Defined at:
  1252 ;;		line 300 in file "../src/my_i2c.c"
  1253 ;; Parameters:    Size  Location     Type
  1254 ;;  ic              2   35[BANK0 ] PTR struct __i2c_comm
  1255 ;;		 -> main@ic(40), 
  1256 ;; Auto vars:     Size  Location     Type
  1257 ;;		None
  1258 ;; Return value:  Size  Location     Type
  1259 ;;		None               void
  1260 ;; Registers used:
  1261 ;;		wreg, fsr2l, fsr2h, status,2, status,0
  1262 ;; Tracked objects:
  1263 ;;		On entry : 0/0
  1264 ;;		On exit  : 0/0
  1265 ;;		Unchanged: 0/0
  1266 ;; Data sizes:     COMRAM   BANK0   BANK1   BANK2   BANK3
  1267 ;;      Params:         0       2       0       0       0
  1268 ;;      Locals:         0       0       0       0       0
  1269 ;;      Temps:          0       0       0       0       0
  1270 ;;      Totals:         0       2       0       0       0
  1271 ;;Total ram usage:        2 bytes
  1272 ;; Hardware stack levels used:    1
  1273 ;; Hardware stack levels required when called:   10
  1274 ;; This function calls:
  1275 ;;		Nothing
  1276 ;; This function is called by:
  1277 ;;		_main
  1278 ;; This function uses a non-reentrant model
  1279 ;;
  1280                           
  1281                           	psect	text4
  1282  000C3A                     __ptext4:
  1283                           	opt stack 0
  1284  000C3A                     _init_i2c:
  1285                           	opt stack 20
  1286                           
  1287                           ;my_i2c.c: 301: ic_ptr = ic;
  1288                           
  1289                           ; BSR set to: 0
  1290                           ;incstack = 0
  1291  000C3A  0100               	movlb	0	; () banked
  1292  000C3C  C0DA  F04D         	movff	init_i2c@ic+1,_ic_ptr+1
  1293  000C40  0100               	movlb	0	; () banked
  1294  000C42  C0D9  F04C         	movff	init_i2c@ic,_ic_ptr
  1295                           
  1296                           ; BSR set to: 0
  1297                           ;my_i2c.c: 302: ic_ptr->buffer[0] = 0;
  1298  000C46  C04C  FFD9         	movff	_ic_ptr,fsr2l
  1299  000C4A  C04D  FFDA         	movff	_ic_ptr+1,fsr2h
  1300  000C4E  0E00               	movlw	0
  1301  000C50  6EDF               	movwf	indf2,c
  1302                           
  1303                           ; BSR set to: 0
  1304                           ;my_i2c.c: 303: ic_ptr->buffer[1] = 0;
  1305  000C52  EE20 F001          	lfsr	2,1
  1306  000C56  504C               	movf	_ic_ptr,w,c
  1307  000C58  26D9               	addwf	fsr2l,f,c
  1308  000C5A  504D               	movf	_ic_ptr+1,w,c
  1309  000C5C  22DA               	addwfc	fsr2h,f,c
  1310  000C5E  0E00               	movlw	0
  1311  000C60  6EDF               	movwf	indf2,c
  1312                           
  1313                           ; BSR set to: 0
  1314                           ;my_i2c.c: 304: ic_ptr->buffer[2] = 0;
  1315  000C62  EE20 F002          	lfsr	2,2
  1316  000C66  504C               	movf	_ic_ptr,w,c
  1317  000C68  26D9               	addwf	fsr2l,f,c
  1318  000C6A  504D               	movf	_ic_ptr+1,w,c
  1319  000C6C  22DA               	addwfc	fsr2h,f,c
  1320  000C6E  0E00               	movlw	0
  1321  000C70  6EDF               	movwf	indf2,c
  1322                           
  1323                           ; BSR set to: 0
  1324                           ;my_i2c.c: 305: ic_ptr->buflen = 0;
  1325  000C72  EE20 F00A          	lfsr	2,10
  1326  000C76  504C               	movf	_ic_ptr,w,c
  1327  000C78  26D9               	addwf	fsr2l,f,c
  1328  000C7A  504D               	movf	_ic_ptr+1,w,c
  1329  000C7C  22DA               	addwfc	fsr2h,f,c
  1330  000C7E  0E00               	movlw	0
  1331  000C80  6EDF               	movwf	indf2,c
  1332                           
  1333                           ; BSR set to: 0
  1334                           ;my_i2c.c: 306: ic_ptr->event_count = 0;
  1335  000C82  EE20 F00B          	lfsr	2,11
  1336  000C86  504C               	movf	_ic_ptr,w,c
  1337  000C88  26D9               	addwf	fsr2l,f,c
  1338  000C8A  504D               	movf	_ic_ptr+1,w,c
  1339  000C8C  22DA               	addwfc	fsr2h,f,c
  1340  000C8E  0E00               	movlw	0
  1341  000C90  6EDF               	movwf	indf2,c
  1342                           
  1343                           ; BSR set to: 0
  1344                           ;my_i2c.c: 307: ic_ptr->status = 0x5;
  1345  000C92  EE20 F00C          	lfsr	2,12
  1346  000C96  504C               	movf	_ic_ptr,w,c
  1347  000C98  26D9               	addwf	fsr2l,f,c
  1348  000C9A  504D               	movf	_ic_ptr+1,w,c
  1349  000C9C  22DA               	addwfc	fsr2h,f,c
  1350  000C9E  0E05               	movlw	5
  1351  000CA0  6EDF               	movwf	indf2,c
  1352                           
  1353                           ; BSR set to: 0
  1354                           ;my_i2c.c: 308: ic_ptr->error_count = 0;
  1355  000CA2  EE20 F00E          	lfsr	2,14
  1356  000CA6  504C               	movf	_ic_ptr,w,c
  1357  000CA8  26D9               	addwf	fsr2l,f,c
  1358  000CAA  504D               	movf	_ic_ptr+1,w,c
  1359  000CAC  22DA               	addwfc	fsr2h,f,c
  1360  000CAE  0E00               	movlw	0
  1361  000CB0  6EDF               	movwf	indf2,c
  1362                           
  1363                           ; BSR set to: 0
  1364                           ;my_i2c.c: 309: ic_ptr->sendBufInd = 0;
  1365  000CB2  EE20 F027          	lfsr	2,39
  1366  000CB6  504C               	movf	_ic_ptr,w,c
  1367  000CB8  26D9               	addwf	fsr2l,f,c
  1368  000CBA  504D               	movf	_ic_ptr+1,w,c
  1369  000CBC  22DA               	addwfc	fsr2h,f,c
  1370  000CBE  0E00               	movlw	0
  1371  000CC0  6EDF               	movwf	indf2,c
  1372                           
  1373                           ; BSR set to: 0
  1374                           ;my_i2c.c: 310: ic_ptr->sendBufLen = 0;
  1375  000CC2  EE20 F026          	lfsr	2,38
  1376  000CC6  504C               	movf	_ic_ptr,w,c
  1377  000CC8  26D9               	addwf	fsr2l,f,c
  1378  000CCA  504D               	movf	_ic_ptr+1,w,c
  1379  000CCC  22DA               	addwfc	fsr2h,f,c
  1380  000CCE  0E00               	movlw	0
  1381  000CD0  6EDF               	movwf	indf2,c
  1382                           
  1383                           ; BSR set to: 0
  1384  000CD2  0012               	return	
  1385  000CD4                     __end_of_init_i2c:
  1386                           	opt stack 0
  1387                           tblptru	equ	0xFF8
  1388                           tblptrh	equ	0xFF7
  1389                           tblptrl	equ	0xFF6
  1390                           tablat	equ	0xFF5
  1391                           prodh	equ	0xFF4
  1392                           prodl	equ	0xFF3
  1393                           intcon	equ	0xFF2
  1394                           postinc0	equ	0xFEE
  1395                           wreg	equ	0xFE8
  1396                           indf2	equ	0xFDF
  1397                           fsr2h	equ	0xFDA
  1398                           fsr2l	equ	0xFD9
  1399                           status	equ	0xFD8
  1400                           
  1401 ;; *************** function _i2c_configure_slave *****************
  1402 ;; Defined at:
  1403 ;;		line 316 in file "../src/my_i2c.c"
  1404 ;; Parameters:    Size  Location     Type
  1405 ;;  addr            1    wreg     unsigned char 
  1406 ;; Auto vars:     Size  Location     Type
  1407 ;;  addr            1   35[BANK0 ] unsigned char 
  1408 ;; Return value:  Size  Location     Type
  1409 ;;		None               void
  1410 ;; Registers used:
  1411 ;;		wreg, status,2, status,0
  1412 ;; Tracked objects:
  1413 ;;		On entry : 0/0
  1414 ;;		On exit  : 0/0
  1415 ;;		Unchanged: 0/0
  1416 ;; Data sizes:     COMRAM   BANK0   BANK1   BANK2   BANK3
  1417 ;;      Params:         0       0       0       0       0
  1418 ;;      Locals:         0       1       0       0       0
  1419 ;;      Temps:          0       0       0       0       0
  1420 ;;      Totals:         0       1       0       0       0
  1421 ;;Total ram usage:        1 bytes
  1422 ;; Hardware stack levels used:    1
  1423 ;; Hardware stack levels required when called:   10
  1424 ;; This function calls:
  1425 ;;		Nothing
  1426 ;; This function is called by:
  1427 ;;		_main
  1428 ;; This function uses a non-reentrant model
  1429 ;;
  1430                           
  1431                           	psect	text5
  1432  0012F8                     __ptext5:
  1433                           	opt stack 0
  1434  0012F8                     _i2c_configure_slave:
  1435                           	opt stack 20
  1436                           
  1437                           ; BSR set to: 0
  1438                           ;incstack = 0
  1439                           ;i2c_configure_slave@addr stored from wreg
  1440  0012F8  CFE8 F0D9          	movff	wreg,i2c_configure_slave@addr
  1441                           
  1442                           ;my_i2c.c: 328: TRISCbits.TRISC3 = 1;
  1443  0012FC  8694               	bsf	3988,3,c	;volatile
  1444                           
  1445                           ;my_i2c.c: 329: TRISCbits.TRISC4 = 1;
  1446  0012FE  8894               	bsf	3988,4,c	;volatile
  1447                           
  1448                           ;my_i2c.c: 334: SSPADD = addr;
  1449  001300  C0D9  FFC8         	movff	i2c_configure_slave@addr,4040	;volatile
  1450                           
  1451                           ;my_i2c.c: 336: SSPSTAT = 0x0;
  1452  001304  0E00               	movlw	0
  1453  001306  6EC7               	movwf	4039,c	;volatile
  1454                           
  1455                           ;my_i2c.c: 337: SSPCON1 = 0x0;
  1456  001308  0E00               	movlw	0
  1457  00130A  6EC6               	movwf	4038,c	;volatile
  1458                           
  1459                           ;my_i2c.c: 338: SSPCON2 = 0x0;
  1460  00130C  0E00               	movlw	0
  1461  00130E  6EC5               	movwf	4037,c	;volatile
  1462                           
  1463                           ;my_i2c.c: 339: SSPCON1 |= 0x0E;
  1464  001310  0E0E               	movlw	14
  1465  001312  12C6               	iorwf	4038,f,c	;volatile
  1466                           
  1467                           ;my_i2c.c: 340: SSPSTAT |= 0b10000000;
  1468  001314  8EC7               	bsf	4039,7,c	;volatile
  1469                           
  1470                           ;my_i2c.c: 343: TRISCbits.TRISC3 = 1;
  1471  001316  8694               	bsf	3988,3,c	;volatile
  1472                           
  1473                           ;my_i2c.c: 344: TRISCbits.TRISC4 = 1;
  1474  001318  8894               	bsf	3988,4,c	;volatile
  1475                           
  1476                           ;my_i2c.c: 365: SSPCON2bits.SEN = 1;
  1477  00131A  80C5               	bsf	4037,0,c	;volatile
  1478                           
  1479                           ;my_i2c.c: 366: SSPCON1 |= 0b00100000;
  1480  00131C  8AC6               	bsf	4038,5,c	;volatile
  1481  00131E  0012               	return	
  1482  001320                     __end_of_i2c_configure_slave:
  1483                           	opt stack 0
  1484                           tblptru	equ	0xFF8
  1485                           tblptrh	equ	0xFF7
  1486                           tblptrl	equ	0xFF6
  1487                           tablat	equ	0xFF5
  1488                           prodh	equ	0xFF4
  1489                           prodl	equ	0xFF3
  1490                           intcon	equ	0xFF2
  1491                           postinc0	equ	0xFEE
  1492                           wreg	equ	0xFE8
  1493                           indf2	equ	0xFDF
  1494                           fsr2h	equ	0xFDA
  1495                           fsr2l	equ	0xFD9
  1496                           status	equ	0xFD8
  1497                           
  1498 ;; *************** function _enable_interrupts *****************
  1499 ;; Defined at:
  1500 ;;		line 14 in file "../src/interrupts.c"
  1501 ;; Parameters:    Size  Location     Type
  1502 ;;		None
  1503 ;; Auto vars:     Size  Location     Type
  1504 ;;		None
  1505 ;; Return value:  Size  Location     Type
  1506 ;;		None               void
  1507 ;; Registers used:
  1508 ;;		None
  1509 ;; Tracked objects:
  1510 ;;		On entry : 0/0
  1511 ;;		On exit  : 0/0
  1512 ;;		Unchanged: 0/0
  1513 ;; Data sizes:     COMRAM   BANK0   BANK1   BANK2   BANK3
  1514 ;;      Params:         0       0       0       0       0
  1515 ;;      Locals:         0       0       0       0       0
  1516 ;;      Temps:          0       0       0       0       0
  1517 ;;      Totals:         0       0       0       0       0
  1518 ;;Total ram usage:        0 bytes
  1519 ;; Hardware stack levels used:    1
  1520 ;; Hardware stack levels required when called:   10
  1521 ;; This function calls:
  1522 ;;		Nothing
  1523 ;; This function is called by:
  1524 ;;		_main
  1525 ;; This function uses a non-reentrant model
  1526 ;;
  1527                           
  1528                           	psect	text6
  1529  00142C                     __ptext6:
  1530                           	opt stack 0
  1531  00142C                     _enable_interrupts:
  1532                           	opt stack 20
  1533                           
  1534                           ;interrupts.c: 17: RCONbits.IPEN = 1;
  1535                           
  1536                           ;incstack = 0
  1537  00142C  8ED0               	bsf	4048,7,c	;volatile
  1538                           
  1539                           ;interrupts.c: 18: INTCONbits.GIEH = 1;
  1540  00142E  8EF2               	bsf	intcon,7,c	;volatile
  1541                           
  1542                           ;interrupts.c: 19: INTCONbits.GIEL = 1;
  1543  001430  8CF2               	bsf	intcon,6,c	;volatile
  1544  001432  0012               	return	
  1545  001434                     __end_of_enable_interrupts:
  1546                           	opt stack 0
  1547                           tblptru	equ	0xFF8
  1548                           tblptrh	equ	0xFF7
  1549                           tblptrl	equ	0xFF6
  1550                           tablat	equ	0xFF5
  1551                           prodh	equ	0xFF4
  1552                           prodl	equ	0xFF3
  1553                           intcon	equ	0xFF2
  1554                           postinc0	equ	0xFEE
  1555                           wreg	equ	0xFE8
  1556                           indf2	equ	0xFDF
  1557                           fsr2h	equ	0xFDA
  1558                           fsr2l	equ	0xFD9
  1559                           status	equ	0xFD8
  1560                           
  1561 ;; *************** function _block_on_To_msgqueues *****************
  1562 ;; Defined at:
  1563 ;;		line 258 in file "../src/messages.c"
  1564 ;; Parameters:    Size  Location     Type
  1565 ;;		None
  1566 ;; Auto vars:     Size  Location     Type
  1567 ;;		None
  1568 ;; Return value:  Size  Location     Type
  1569 ;;		None               void
  1570 ;; Registers used:
  1571 ;;		wreg, fsr2l, fsr2h, status,2, status,0, prodl, prodh, cstack
  1572 ;; Tracked objects:
  1573 ;;		On entry : 0/0
  1574 ;;		On exit  : 0/0
  1575 ;;		Unchanged: 0/0
  1576 ;; Data sizes:     COMRAM   BANK0   BANK1   BANK2   BANK3
  1577 ;;      Params:         0       0       0       0       0
  1578 ;;      Locals:         0       0       0       0       0
  1579 ;;      Temps:          0       0       1       0       0
  1580 ;;      Totals:         0       0       1       0       0
  1581 ;;Total ram usage:        1 bytes
  1582 ;; Hardware stack levels used:    1
  1583 ;; Hardware stack levels required when called:   13
  1584 ;; This function calls:
  1585 ;;		_Delay1KTCYx
  1586 ;;		_check_msg
  1587 ;;		_in_main
  1588 ;; This function is called by:
  1589 ;;		_main
  1590 ;; This function uses a non-reentrant model
  1591 ;;
  1592                           
  1593                           	psect	text7
  1594  000DF0                     __ptext7:
  1595                           	opt stack 0
  1596  000DF0                     _block_on_To_msgqueues:
  1597                           	opt stack 17
  1598                           
  1599                           ;messages.c: 259: if (!in_main()) {
  1600                           
  1601                           ;incstack = 0
  1602  000DF0  EC47  F008         	call	_in_main	;wreg free
  1603  000DF4  0101               	movlb	1	; () banked
  1604  000DF6  0101               	movlb	1	; () banked
  1605  000DF8  51A3               	movf	(?_in_main+1)& (0+255),w,b
  1606  000DFA  0101               	movlb	1	; () banked
  1607  000DFC  11A2               	iorwf	?_in_main& (0+255),w,b
  1608  000DFE  B4D8               	btfsc	status,2,c
  1609  000E00  0012               	return	
  1610                           
  1611                           ; BSR set to: 1
  1612                           ;messages.c: 261: }
  1613                           ;messages.c: 263: MQ_Main_Willing_to_block = 1;
  1614                           
  1615                           ; BSR set to: 1
  1616                           
  1617                           ; BSR set to: 1
  1618                           ;messages.c: 260: return;
  1619  000E02  0101               	movlb	1	; () banked
  1620  000E04  6FA4               	movwf	??_block_on_To_msgqueues& (0+255),b
  1621  000E06  0E01               	movlw	1
  1622  000E08  6E4A               	movwf	_MQ_Main_Willing_to_block,c
  1623  000E0A  0101               	movlb	1	; () banked
  1624  000E0C  51A4               	movf	??_block_on_To_msgqueues& (0+255),w,b
  1625  000E0E                     l2807:
  1626                           
  1627                           ;messages.c: 265: if (check_msg(&ToMainHigh_MQ)) {
  1628  000E0E  0101               	movlb	1	; () banked
  1629  000E10  0E01               	movlw	high _ToMainHigh_MQ
  1630  000E12  0100               	movlb	0	; () banked
  1631  000E14  0100               	movlb	0	; () banked
  1632  000E16  6FDA               	movwf	(check_msg@qptr+1)& (0+255),b
  1633  000E18  0101               	movlb	1	; () banked
  1634  000E1A  0E6C               	movlw	low _ToMainHigh_MQ
  1635  000E1C  0100               	movlb	0	; () banked
  1636  000E1E  0100               	movlb	0	; () banked
  1637  000E20  6FD9               	movwf	check_msg@qptr& (0+255),b
  1638  000E22  EC08  F009         	call	_check_msg	;wreg free
  1639  000E26  0900               	iorlw	0
  1640  000E28  B4D8               	btfsc	status,2,c
  1641  000E2A  D007               	goto	l2813
  1642                           
  1643                           ;messages.c: 266: MQ_Main_Willing_to_block = 0;
  1644  000E2C  0101               	movlb	1	; () banked
  1645  000E2E  6FA4               	movwf	??_block_on_To_msgqueues& (0+255),b
  1646  000E30  0E00               	movlw	0
  1647  000E32  6E4A               	movwf	_MQ_Main_Willing_to_block,c
  1648  000E34  0101               	movlb	1	; () banked
  1649  000E36  51A4               	movf	??_block_on_To_msgqueues& (0+255),w,b
  1650  000E38  0012               	return	
  1651  000E3A                     l2813:
  1652                           
  1653                           ;messages.c: 271: }
  1654                           ;messages.c: 272: if (check_msg(&ToMainLow_MQ)) {
  1655  000E3A  0100               	movlb	0	; () banked
  1656  000E3C  0E00               	movlw	high _ToMainLow_MQ
  1657  000E3E  0100               	movlb	0	; () banked
  1658  000E40  0100               	movlb	0	; () banked
  1659  000E42  6FDA               	movwf	(check_msg@qptr+1)& (0+255),b
  1660  000E44  0100               	movlb	0	; () banked
  1661  000E46  0E80               	movlw	low _ToMainLow_MQ
  1662  000E48  0100               	movlb	0	; () banked
  1663  000E4A  0100               	movlb	0	; () banked
  1664  000E4C  6FD9               	movwf	check_msg@qptr& (0+255),b
  1665  000E4E  EC08  F009         	call	_check_msg	;wreg free
  1666  000E52  0900               	iorlw	0
  1667  000E54  B4D8               	btfsc	status,2,c
  1668  000E56  D007               	goto	l2819
  1669                           
  1670                           ;messages.c: 273: MQ_Main_Willing_to_block = 0;
  1671  000E58  0101               	movlb	1	; () banked
  1672  000E5A  6FA4               	movwf	??_block_on_To_msgqueues& (0+255),b
  1673  000E5C  0E00               	movlw	0
  1674  000E5E  6E4A               	movwf	_MQ_Main_Willing_to_block,c
  1675  000E60  0101               	movlb	1	; () banked
  1676  000E62  51A4               	movf	??_block_on_To_msgqueues& (0+255),w,b
  1677  000E64  0012               	return	
  1678  000E66                     l2819:
  1679                           
  1680                           ;messages.c: 278: }
  1681                           ;messages.c: 279: Delay1KTCYx(10);
  1682  000E66  0E0A               	movlw	10
  1683  000E68  ECD3  F009         	call	_Delay1KTCYx
  1684  000E6C  D7D0               	goto	l2807
  1685  000E6E                     __end_of_block_on_To_msgqueues:
  1686                           	opt stack 0
  1687                           tblptru	equ	0xFF8
  1688                           tblptrh	equ	0xFF7
  1689                           tblptrl	equ	0xFF6
  1690                           tablat	equ	0xFF5
  1691                           prodh	equ	0xFF4
  1692                           prodl	equ	0xFF3
  1693                           intcon	equ	0xFF2
  1694                           postinc0	equ	0xFEE
  1695                           wreg	equ	0xFE8
  1696                           indf2	equ	0xFDF
  1697                           fsr2h	equ	0xFDA
  1698                           fsr2l	equ	0xFD9
  1699                           status	equ	0xFD8
  1700                           
  1701 ;; *************** function _in_main *****************
  1702 ;; Defined at:
  1703 ;;		line 40 in file "../src/interrupts.c"
  1704 ;; Parameters:    Size  Location     Type
  1705 ;;		None
  1706 ;; Auto vars:     Size  Location     Type
  1707 ;;		None
  1708 ;; Return value:  Size  Location     Type
  1709 ;;                  2    0[BANK1 ] int 
  1710 ;; Registers used:
  1711 ;;		wreg, status,2, status,0, cstack
  1712 ;; Tracked objects:
  1713 ;;		On entry : 0/0
  1714 ;;		On exit  : 0/0
  1715 ;;		Unchanged: 0/0
  1716 ;; Data sizes:     COMRAM   BANK0   BANK1   BANK2   BANK3
  1717 ;;      Params:         0       0       2       0       0
  1718 ;;      Locals:         0       0       0       0       0
  1719 ;;      Temps:          0       0       0       0       0
  1720 ;;      Totals:         0       0       2       0       0
  1721 ;;Total ram usage:        2 bytes
  1722 ;; Hardware stack levels used:    1
  1723 ;; Hardware stack levels required when called:   12
  1724 ;; This function calls:
  1725 ;;		_in_high_int
  1726 ;;		_in_low_int
  1727 ;; This function is called by:
  1728 ;;		_block_on_To_msgqueues
  1729 ;; This function uses a non-reentrant model
  1730 ;;
  1731                           
  1732                           	psect	text8
  1733  00108E                     __ptext8:
  1734                           	opt stack 0
  1735  00108E                     _in_main:
  1736                           	opt stack 17
  1737                           
  1738                           ;interrupts.c: 41: if ((!in_low_int()) && (!in_high_int())) {
  1739                           
  1740                           ;incstack = 0
  1741  00108E  EC24  F008         	call	_in_low_int	;wreg free
  1742  001092  0100               	movlb	0	; () banked
  1743  001094  0100               	movlb	0	; () banked
  1744  001096  51DC               	movf	(?_in_low_int+1)& (0+255),w,b
  1745  001098  0100               	movlb	0	; () banked
  1746  00109A  11DB               	iorwf	?_in_low_int& (0+255),w,b
  1747  00109C  A4D8               	btfss	status,2,c
  1748  00109E  D011               	goto	l2561
  1749                           
  1750                           ; BSR set to: 0
  1751  0010A0  ECDE  F009         	call	_in_high_int	;wreg free
  1752  0010A4  0100               	movlb	0	; () banked
  1753  0010A6  0100               	movlb	0	; () banked
  1754  0010A8  51DA               	movf	(?_in_high_int+1)& (0+255),w,b
  1755  0010AA  0100               	movlb	0	; () banked
  1756  0010AC  11D9               	iorwf	?_in_high_int& (0+255),w,b
  1757  0010AE  A4D8               	btfss	status,2,c
  1758  0010B0  D008               	goto	l2561
  1759                           
  1760                           ; BSR set to: 0
  1761                           ;interrupts.c: 42: return (1);
  1762  0010B2  0E00               	movlw	0
  1763  0010B4  0101               	movlb	1	; () banked
  1764  0010B6  0101               	movlb	1	; () banked
  1765  0010B8  6FA3               	movwf	(?_in_main+1)& (0+255),b
  1766  0010BA  0E01               	movlw	1
  1767  0010BC  0101               	movlb	1	; () banked
  1768  0010BE  6FA2               	movwf	?_in_main& (0+255),b
  1769  0010C0  0012               	return	
  1770  0010C2                     l2561:
  1771                           
  1772                           ;interrupts.c: 44: return (0);
  1773  0010C2  0E00               	movlw	0
  1774  0010C4  0101               	movlb	1	; () banked
  1775  0010C6  0101               	movlb	1	; () banked
  1776  0010C8  6FA3               	movwf	(?_in_main+1)& (0+255),b
  1777  0010CA  0E00               	movlw	0
  1778  0010CC  0101               	movlb	1	; () banked
  1779  0010CE  6FA2               	movwf	?_in_main& (0+255),b
  1780  0010D0  0012               	return	
  1781  0010D2                     __end_of_in_main:
  1782                           	opt stack 0
  1783                           tblptru	equ	0xFF8
  1784                           tblptrh	equ	0xFF7
  1785                           tblptrl	equ	0xFF6
  1786                           tablat	equ	0xFF5
  1787                           prodh	equ	0xFF4
  1788                           prodl	equ	0xFF3
  1789                           intcon	equ	0xFF2
  1790                           postinc0	equ	0xFEE
  1791                           wreg	equ	0xFE8
  1792                           indf2	equ	0xFDF
  1793                           fsr2h	equ	0xFDA
  1794                           fsr2l	equ	0xFD9
  1795                           status	equ	0xFD8
  1796                           
  1797 ;; *************** function _in_low_int *****************
  1798 ;; Defined at:
  1799 ;;		line 30 in file "../src/interrupts.c"
  1800 ;; Parameters:    Size  Location     Type
  1801 ;;		None
  1802 ;; Auto vars:     Size  Location     Type
  1803 ;;		None
  1804 ;; Return value:  Size  Location     Type
  1805 ;;                  2   37[BANK0 ] int 
  1806 ;; Registers used:
  1807 ;;		wreg, status,2, status,0, cstack
  1808 ;; Tracked objects:
  1809 ;;		On entry : 0/0
  1810 ;;		On exit  : 0/0
  1811 ;;		Unchanged: 0/0
  1812 ;; Data sizes:     COMRAM   BANK0   BANK1   BANK2   BANK3
  1813 ;;      Params:         0       2       0       0       0
  1814 ;;      Locals:         0       0       0       0       0
  1815 ;;      Temps:          0       0       0       0       0
  1816 ;;      Totals:         0       2       0       0       0
  1817 ;;Total ram usage:        2 bytes
  1818 ;; Hardware stack levels used:    1
  1819 ;; Hardware stack levels required when called:   11
  1820 ;; This function calls:
  1821 ;;		_in_high_int
  1822 ;; This function is called by:
  1823 ;;		_in_main
  1824 ;; This function uses a non-reentrant model
  1825 ;;
  1826                           
  1827                           	psect	text9
  1828  001048                     __ptext9:
  1829                           	opt stack 0
  1830  001048                     _in_low_int:
  1831                           	opt stack 17
  1832                           
  1833                           ;interrupts.c: 31: if (INTCONbits.GIEL == 1) {
  1834                           
  1835                           ; BSR set to: 1
  1836                           ;incstack = 0
  1837  001048  ACF2               	btfss	intcon,6,c	;volatile
  1838  00104A  D008               	goto	l1879
  1839                           
  1840                           ;interrupts.c: 32: return (0);
  1841  00104C  0E00               	movlw	0
  1842  00104E  0100               	movlb	0	; () banked
  1843  001050  0100               	movlb	0	; () banked
  1844  001052  6FDC               	movwf	(?_in_low_int+1)& (0+255),b
  1845  001054  0E00               	movlw	0
  1846  001056  0100               	movlb	0	; () banked
  1847  001058  6FDB               	movwf	?_in_low_int& (0+255),b
  1848  00105A  0012               	return	
  1849  00105C                     l1879:
  1850  00105C  ECDE  F009         	call	_in_high_int	;wreg free
  1851  001060  0100               	movlb	0	; () banked
  1852  001062  0100               	movlb	0	; () banked
  1853  001064  51DA               	movf	(?_in_high_int+1)& (0+255),w,b
  1854  001066  0100               	movlb	0	; () banked
  1855  001068  11D9               	iorwf	?_in_high_int& (0+255),w,b
  1856  00106A  B4D8               	btfsc	status,2,c
  1857  00106C  D008               	goto	l1887
  1858                           
  1859                           ; BSR set to: 0
  1860                           ;interrupts.c: 34: return (0);
  1861  00106E  0E00               	movlw	0
  1862  001070  0100               	movlb	0	; () banked
  1863  001072  0100               	movlb	0	; () banked
  1864  001074  6FDC               	movwf	(?_in_low_int+1)& (0+255),b
  1865  001076  0E00               	movlw	0
  1866  001078  0100               	movlb	0	; () banked
  1867  00107A  6FDB               	movwf	?_in_low_int& (0+255),b
  1868  00107C  0012               	return	
  1869  00107E                     l1887:
  1870                           
  1871                           ; BSR set to: 0
  1872                           ;interrupts.c: 36: return (1);
  1873  00107E  0E00               	movlw	0
  1874  001080  0100               	movlb	0	; () banked
  1875  001082  0100               	movlb	0	; () banked
  1876  001084  6FDC               	movwf	(?_in_low_int+1)& (0+255),b
  1877  001086  0E01               	movlw	1
  1878  001088  0100               	movlb	0	; () banked
  1879  00108A  6FDB               	movwf	?_in_low_int& (0+255),b
  1880  00108C  0012               	return	
  1881  00108E                     __end_of_in_low_int:
  1882                           	opt stack 0
  1883                           tblptru	equ	0xFF8
  1884                           tblptrh	equ	0xFF7
  1885                           tblptrl	equ	0xFF6
  1886                           tablat	equ	0xFF5
  1887                           prodh	equ	0xFF4
  1888                           prodl	equ	0xFF3
  1889                           intcon	equ	0xFF2
  1890                           postinc0	equ	0xFEE
  1891                           wreg	equ	0xFE8
  1892                           indf2	equ	0xFDF
  1893                           fsr2h	equ	0xFDA
  1894                           fsr2l	equ	0xFD9
  1895                           status	equ	0xFD8
  1896                           
  1897 ;; *************** function _in_high_int *****************
  1898 ;; Defined at:
  1899 ;;		line 22 in file "../src/interrupts.c"
  1900 ;; Parameters:    Size  Location     Type
  1901 ;;		None
  1902 ;; Auto vars:     Size  Location     Type
  1903 ;;		None
  1904 ;; Return value:  Size  Location     Type
  1905 ;;                  2   35[BANK0 ] int 
  1906 ;; Registers used:
  1907 ;;		wreg, status,2
  1908 ;; Tracked objects:
  1909 ;;		On entry : 0/0
  1910 ;;		On exit  : 0/0
  1911 ;;		Unchanged: 0/0
  1912 ;; Data sizes:     COMRAM   BANK0   BANK1   BANK2   BANK3
  1913 ;;      Params:         0       2       0       0       0
  1914 ;;      Locals:         0       0       0       0       0
  1915 ;;      Temps:          0       0       0       0       0
  1916 ;;      Totals:         0       2       0       0       0
  1917 ;;Total ram usage:        2 bytes
  1918 ;; Hardware stack levels used:    1
  1919 ;; Hardware stack levels required when called:   10
  1920 ;; This function calls:
  1921 ;;		Nothing
  1922 ;; This function is called by:
  1923 ;;		_in_low_int
  1924 ;;		_in_main
  1925 ;; This function uses a non-reentrant model
  1926 ;;
  1927                           
  1928                           	psect	text10
  1929  0013BC                     __ptext10:
  1930                           	opt stack 0
  1931  0013BC                     _in_high_int:
  1932                           	opt stack 17
  1933                           
  1934                           ;interrupts.c: 23: return (!INTCONbits.GIEH);
  1935                           
  1936                           ; BSR set to: 0
  1937                           ;incstack = 0
  1938  0013BC  0E00               	movlw	0
  1939  0013BE  AEF2               	btfss	intcon,7,c	;volatile
  1940  0013C0  0E01               	movlw	1
  1941  0013C2  0100               	movlb	0	; () banked
  1942  0013C4  0100               	movlb	0	; () banked
  1943  0013C6  6FD9               	movwf	?_in_high_int& (0+255),b
  1944  0013C8  0100               	movlb	0	; () banked
  1945  0013CA  6BDA               	clrf	(?_in_high_int+1)& (0+255),b
  1946  0013CC  0012               	return	
  1947  0013CE                     __end_of_in_high_int:
  1948                           	opt stack 0
  1949                           tblptru	equ	0xFF8
  1950                           tblptrh	equ	0xFF7
  1951                           tblptrl	equ	0xFF6
  1952                           tablat	equ	0xFF5
  1953                           prodh	equ	0xFF4
  1954                           prodl	equ	0xFF3
  1955                           intcon	equ	0xFF2
  1956                           postinc0	equ	0xFEE
  1957                           wreg	equ	0xFE8
  1958                           indf2	equ	0xFDF
  1959                           fsr2h	equ	0xFDA
  1960                           fsr2l	equ	0xFD9
  1961                           status	equ	0xFD8
  1962                           
  1963 ;; *************** function _check_msg *****************
  1964 ;; Defined at:
  1965 ;;		line 222 in file "../src/messages.c"
  1966 ;; Parameters:    Size  Location     Type
  1967 ;;  qptr            2   35[BANK0 ] PTR struct __msg_queue
  1968 ;;		 -> ToMainHigh_MQ(54), ToMainLow_MQ(54), 
  1969 ;; Auto vars:     Size  Location     Type
  1970 ;;		None
  1971 ;; Return value:  Size  Location     Type
  1972 ;;                  1    wreg      unsigned char 
  1973 ;; Registers used:
  1974 ;;		wreg, fsr2l, fsr2h, status,2, status,0, prodl, prodh
  1975 ;; Tracked objects:
  1976 ;;		On entry : 0/0
  1977 ;;		On exit  : 0/0
  1978 ;;		Unchanged: 0/0
  1979 ;; Data sizes:     COMRAM   BANK0   BANK1   BANK2   BANK3
  1980 ;;      Params:         0       2       0       0       0
  1981 ;;      Locals:         0       0       0       0       0
  1982 ;;      Temps:          0       1       0       0       0
  1983 ;;      Totals:         0       3       0       0       0
  1984 ;;Total ram usage:        3 bytes
  1985 ;; Hardware stack levels used:    1
  1986 ;; Hardware stack levels required when called:   10
  1987 ;; This function calls:
  1988 ;;		Nothing
  1989 ;; This function is called by:
  1990 ;;		_block_on_To_msgqueues
  1991 ;; This function uses a non-reentrant model
  1992 ;;
  1993                           
  1994                           	psect	text11
  1995  001210                     __ptext11:
  1996                           	opt stack 0
  1997  001210                     _check_msg:
  1998                           	opt stack 19
  1999                           
  2000                           ;messages.c: 223: return (qptr->queue[qptr->cur_read_ind].full);
  2001                           
  2002                           ; BSR set to: 0
  2003                           ;incstack = 0
  2004  001210  0100               	movlb	0	; () banked
  2005  001212  EE20 F035          	lfsr	2,53
  2006  001216  0100               	movlb	0	; () banked
  2007  001218  51D9               	movf	check_msg@qptr& (0+255),w,b
  2008  00121A  26D9               	addwf	fsr2l,f,c
  2009  00121C  0100               	movlb	0	; () banked
  2010  00121E  51DA               	movf	(check_msg@qptr+1)& (0+255),w,b
  2011  001220  22DA               	addwfc	fsr2h,f,c
  2012  001222  50DF               	movf	indf2,w,c
  2013  001224  0100               	movlb	0	; () banked
  2014  001226  6FDB               	movwf	??_check_msg& (0+255),b
  2015  001228  0100               	movlb	0	; () banked
  2016  00122A  51DB               	movf	??_check_msg& (0+255),w,b
  2017  00122C  0D0D               	mullw	13
  2018  00122E  50F3               	movf	prodl,w,c
  2019  001230  0100               	movlb	0	; () banked
  2020  001232  0100               	movlb	0	; () banked
  2021  001234  25D9               	addwf	check_msg@qptr& (0+255),w,b
  2022  001236  6ED9               	movwf	fsr2l,c
  2023  001238  50F4               	movf	prodh,w,c
  2024  00123A  0100               	movlb	0	; () banked
  2025  00123C  0100               	movlb	0	; () banked
  2026  00123E  21DA               	addwfc	(check_msg@qptr+1)& (0+255),w,b
  2027  001240  6EDA               	movwf	fsr2h,c
  2028  001242  50DF               	movf	indf2,w,c
  2029  001244  0012               	return	
  2030  001246                     __end_of_check_msg:
  2031                           	opt stack 0
  2032                           tblptru	equ	0xFF8
  2033                           tblptrh	equ	0xFF7
  2034                           tblptrl	equ	0xFF6
  2035                           tablat	equ	0xFF5
  2036                           prodh	equ	0xFF4
  2037                           prodl	equ	0xFF3
  2038                           intcon	equ	0xFF2
  2039                           postinc0	equ	0xFEE
  2040                           wreg	equ	0xFE8
  2041                           indf2	equ	0xFDF
  2042                           fsr2h	equ	0xFDA
  2043                           fsr2l	equ	0xFD9
  2044                           status	equ	0xFD8
  2045                           
  2046 ;; *************** function _Delay1KTCYx *****************
  2047 ;; Defined at:
  2048 ;;		line 8 in file "/Applications/microchip/xc8/v1.30/sources/pic18/d1ktcyx.c"
  2049 ;; Parameters:    Size  Location     Type
  2050 ;;  unit            1    wreg     unsigned char 
  2051 ;; Auto vars:     Size  Location     Type
  2052 ;;  unit            1   35[BANK0 ] unsigned char 
  2053 ;; Return value:  Size  Location     Type
  2054 ;;		None               void
  2055 ;; Registers used:
  2056 ;;		wreg
  2057 ;; Tracked objects:
  2058 ;;		On entry : 0/0
  2059 ;;		On exit  : 0/0
  2060 ;;		Unchanged: 0/0
  2061 ;; Data sizes:     COMRAM   BANK0   BANK1   BANK2   BANK3
  2062 ;;      Params:         0       0       0       0       0
  2063 ;;      Locals:         0       1       0       0       0
  2064 ;;      Temps:          0       0       0       0       0
  2065 ;;      Totals:         0       1       0       0       0
  2066 ;;Total ram usage:        1 bytes
  2067 ;; Hardware stack levels used:    1
  2068 ;; Hardware stack levels required when called:   10
  2069 ;; This function calls:
  2070 ;;		Nothing
  2071 ;; This function is called by:
  2072 ;;		_block_on_To_msgqueues
  2073 ;; This function uses a non-reentrant model
  2074 ;;
  2075                           
  2076                           	psect	text12
  2077  0013A6                     __ptext12:
  2078                           	opt stack 0
  2079  0013A6                     _Delay1KTCYx:
  2080                           	opt stack 19
  2081                           
  2082                           ; BSR set to: 0
  2083                           ;incstack = 0
  2084                           ;Delay1KTCYx@unit stored from wreg
  2085  0013A6  CFE8 F0D9          	movff	wreg,Delay1KTCYx@unit
  2086  0013AA                     l671:
  2087  0013AA  0EFA               	movlw	250
  2088  0013AC                     u1977:
  2089  0013AC  F000               	nop	
  2090  0013AE  2EE8               	decfsz	wreg,f,c
  2091  0013B0  D7FD               	goto	u1977
  2092  0013B2  0100               	movlb	0	; () banked
  2093  0013B4  0100               	movlb	0	; () banked
  2094  0013B6  2FD9               	decfsz	Delay1KTCYx@unit& (0+255),f,b
  2095  0013B8  D7F8               	goto	l671
  2096  0013BA  0012               	return	
  2097  0013BC                     __end_of_Delay1KTCYx:
  2098                           	opt stack 0
  2099                           tblptru	equ	0xFF8
  2100                           tblptrh	equ	0xFF7
  2101                           tblptrl	equ	0xFF6
  2102                           tablat	equ	0xFF5
  2103                           prodh	equ	0xFF4
  2104                           prodl	equ	0xFF3
  2105                           intcon	equ	0xFF2
  2106                           postinc0	equ	0xFEE
  2107                           wreg	equ	0xFE8
  2108                           indf2	equ	0xFDF
  2109                           fsr2h	equ	0xFDA
  2110                           fsr2l	equ	0xFD9
  2111                           status	equ	0xFD8
  2112                           
  2113 ;; *************** function _ToMainHigh_recvmsg *****************
  2114 ;; Defined at:
  2115 ;;		line 135 in file "../src/messages.c"
  2116 ;; Parameters:    Size  Location     Type
  2117 ;;  maxlength       1    wreg     unsigned char 
  2118 ;;  msgtype         2   20[BANK1 ] PTR unsigned char 
  2119 ;;		 -> main@msgtype(1), 
  2120 ;;  data            2   22[BANK1 ] PTR void 
  2121 ;;		 -> main@msgbuffer(11), 
  2122 ;; Auto vars:     Size  Location     Type
  2123 ;;  maxlength       1   24[BANK1 ] unsigned char 
  2124 ;; Return value:  Size  Location     Type
  2125 ;;                  1    wreg      char 
  2126 ;; Registers used:
  2127 ;;		wreg, fsr1l, fsr1h, fsr2l, fsr2h, status,2, status,0, prodl, prodh, cstack
  2128 ;; Tracked objects:
  2129 ;;		On entry : 0/0
  2130 ;;		On exit  : 0/0
  2131 ;;		Unchanged: 0/0
  2132 ;; Data sizes:     COMRAM   BANK0   BANK1   BANK2   BANK3
  2133 ;;      Params:         0       0       4       0       0
  2134 ;;      Locals:         0       0       1       0       0
  2135 ;;      Temps:          0       0       0       0       0
  2136 ;;      Totals:         0       0       5       0       0
  2137 ;;Total ram usage:        5 bytes
  2138 ;; Hardware stack levels used:    1
  2139 ;; Hardware stack levels required when called:   12
  2140 ;; This function calls:
  2141 ;;		_recv_msg
  2142 ;; This function is called by:
  2143 ;;		_main
  2144 ;; This function uses a non-reentrant model
  2145 ;;
  2146                           
  2147                           	psect	text13
  2148  001116                     __ptext13:
  2149                           	opt stack 0
  2150  001116                     _ToMainHigh_recvmsg:
  2151                           	opt stack 18
  2152                           
  2153                           ; BSR set to: 0
  2154                           ;incstack = 0
  2155                           ;ToMainHigh_recvmsg@maxlength stored from wreg
  2156  001116  CFE8 F1BA          	movff	wreg,ToMainHigh_recvmsg@maxlength
  2157                           
  2158                           ;messages.c: 141: return (recv_msg(&ToMainHigh_MQ, maxlength, msgtype, data));
  2159  00111A  0101               	movlb	1	; () banked
  2160  00111C  0E01               	movlw	high _ToMainHigh_MQ
  2161  00111E  0101               	movlb	1	; () banked
  2162  001120  0101               	movlb	1	; () banked
  2163  001122  6FA9               	movwf	(recv_msg@qptr+1)& (0+255),b
  2164  001124  0101               	movlb	1	; () banked
  2165  001126  0E6C               	movlw	low _ToMainHigh_MQ
  2166  001128  0101               	movlb	1	; () banked
  2167  00112A  0101               	movlb	1	; () banked
  2168  00112C  6FA8               	movwf	recv_msg@qptr& (0+255),b
  2169  00112E  C1BA  F1AA         	movff	ToMainHigh_recvmsg@maxlength,recv_msg@maxlength
  2170  001132  0101               	movlb	1	; () banked
  2171  001134  0101               	movlb	1	; () banked
  2172  001136  C1B7  F1AC         	movff	ToMainHigh_recvmsg@msgtype+1,recv_msg@msgtype+1
  2173  00113A  0101               	movlb	1	; () banked
  2174  00113C  0101               	movlb	1	; () banked
  2175  00113E  C1B6  F1AB         	movff	ToMainHigh_recvmsg@msgtype,recv_msg@msgtype
  2176  001142  0101               	movlb	1	; () banked
  2177  001144  0101               	movlb	1	; () banked
  2178  001146  C1B9  F1AE         	movff	ToMainHigh_recvmsg@data+1,recv_msg@data+1
  2179  00114A  0101               	movlb	1	; () banked
  2180  00114C  0101               	movlb	1	; () banked
  2181  00114E  C1B8  F1AD         	movff	ToMainHigh_recvmsg@data,recv_msg@data
  2182  001152  ECA2  F003         	call	_recv_msg	;wreg free
  2183  001156  0012               	return	
  2184  001158                     __end_of_ToMainHigh_recvmsg:
  2185                           	opt stack 0
  2186                           tblptru	equ	0xFF8
  2187                           tblptrh	equ	0xFF7
  2188                           tblptrl	equ	0xFF6
  2189                           tablat	equ	0xFF5
  2190                           prodh	equ	0xFF4
  2191                           prodl	equ	0xFF3
  2192                           intcon	equ	0xFF2
  2193                           postinc0	equ	0xFEE
  2194                           wreg	equ	0xFE8
  2195                           indf2	equ	0xFDF
  2196                           fsr2h	equ	0xFDA
  2197                           fsr2l	equ	0xFD9
  2198                           status	equ	0xFD8
  2199                           
  2200 ;; *************** function _recv_msg *****************
  2201 ;; Defined at:
  2202 ;;		line 63 in file "../src/messages.c"
  2203 ;; Parameters:    Size  Location     Type
  2204 ;;  qptr            2    6[BANK1 ] PTR struct __msg_queue
  2205 ;;		 -> FromMainHigh_MQ(54), FromMainLow_MQ(54), ToMainHigh_MQ(54), ToMainLow_MQ(54), 
  2206 ;;  maxlength       1    8[BANK1 ] unsigned char 
  2207 ;;  msgtype         2    9[BANK1 ] PTR unsigned char 
  2208 ;;		 -> main@msgtype(1), 
  2209 ;;  data            2   11[BANK1 ] PTR void 
  2210 ;;		 -> main@msgbuffer(11), 
  2211 ;; Auto vars:     Size  Location     Type
  2212 ;;  qmsg            2   18[BANK1 ] PTR struct __msg
  2213 ;;		 -> FromMainLow_MQ.queue(52), FromMainHigh_MQ.queue(52), ToMainHigh_MQ.queue(52), ToMainLow_MQ.queue(52), 
  2214 ;;		 -> FromMainHigh_MQ(54), FromMainLow_MQ(54), ToMainHigh_MQ(54), ToMainLow_MQ(54), 
  2215 ;;  tlength         2   16[BANK1 ] unsigned int 
  2216 ;;  slot            1   15[BANK1 ] unsigned char 
  2217 ;; Return value:  Size  Location     Type
  2218 ;;                  1    wreg      char 
  2219 ;; Registers used:
  2220 ;;		wreg, fsr1l, fsr1h, fsr2l, fsr2h, status,2, status,0, prodl, prodh, cstack
  2221 ;; Tracked objects:
  2222 ;;		On entry : 0/0
  2223 ;;		On exit  : 0/0
  2224 ;;		Unchanged: 0/0
  2225 ;; Data sizes:     COMRAM   BANK0   BANK1   BANK2   BANK3
  2226 ;;      Params:         0       0       7       0       0
  2227 ;;      Locals:         0       0       5       0       0
  2228 ;;      Temps:          0       0       2       0       0
  2229 ;;      Totals:         0       0      14       0       0
  2230 ;;Total ram usage:       14 bytes
  2231 ;; Hardware stack levels used:    1
  2232 ;; Hardware stack levels required when called:   11
  2233 ;; This function calls:
  2234 ;;		_memcpy
  2235 ;; This function is called by:
  2236 ;;		_ToMainHigh_recvmsg
  2237 ;;		_ToMainLow_recvmsg
  2238 ;;		_FromMainLow_recvmsg
  2239 ;;		_FromMainHigh_recvmsg
  2240 ;; This function uses a non-reentrant model
  2241 ;;
  2242                           
  2243                           	psect	text14
  2244  000744                     __ptext14:
  2245                           	opt stack 0
  2246  000744                     _recv_msg:
  2247                           	opt stack 18
  2248                           
  2249                           ;messages.c: 64: unsigned char slot;
  2250                           ;messages.c: 68: msg *qmsg;
  2251                           ;messages.c: 69: size_t tlength;
  2252                           ;messages.c: 72: slot = qptr->cur_read_ind;
  2253                           
  2254                           ;incstack = 0
  2255  000744  0101               	movlb	1	; () banked
  2256  000746  EE20 F035          	lfsr	2,53
  2257  00074A  0101               	movlb	1	; () banked
  2258  00074C  51A8               	movf	recv_msg@qptr& (0+255),w,b
  2259  00074E  26D9               	addwf	fsr2l,f,c
  2260  000750  0101               	movlb	1	; () banked
  2261  000752  51A9               	movf	(recv_msg@qptr+1)& (0+255),w,b
  2262  000754  22DA               	addwfc	fsr2h,f,c
  2263  000756  50DF               	movf	indf2,w,c
  2264  000758  0101               	movlb	1	; () banked
  2265  00075A  0101               	movlb	1	; () banked
  2266  00075C  6FB1               	movwf	recv_msg@slot& (0+255),b
  2267                           
  2268                           ; BSR set to: 1
  2269                           ;messages.c: 73: qmsg = &(qptr->queue[slot]);
  2270  00075E  0101               	movlb	1	; () banked
  2271  000760  0101               	movlb	1	; () banked
  2272  000762  51B1               	movf	recv_msg@slot& (0+255),w,b
  2273  000764  0D0D               	mullw	13
  2274  000766  50F3               	movf	prodl,w,c
  2275  000768  0101               	movlb	1	; () banked
  2276  00076A  0101               	movlb	1	; () banked
  2277  00076C  25A8               	addwf	recv_msg@qptr& (0+255),w,b
  2278  00076E  0101               	movlb	1	; () banked
  2279  000770  0101               	movlb	1	; () banked
  2280  000772  6FB4               	movwf	recv_msg@qmsg& (0+255),b
  2281  000774  50F4               	movf	prodh,w,c
  2282  000776  0101               	movlb	1	; () banked
  2283  000778  0101               	movlb	1	; () banked
  2284  00077A  21A9               	addwfc	(recv_msg@qptr+1)& (0+255),w,b
  2285  00077C  0101               	movlb	1	; () banked
  2286  00077E  6FB5               	movwf	(recv_msg@qmsg+1)& (0+255),b
  2287                           
  2288                           ; BSR set to: 1
  2289                           ;messages.c: 74: if (qmsg->full == 1) {
  2290  000780  0E01               	movlw	1
  2291  000782  C1B4  FFD9         	movff	recv_msg@qmsg,fsr2l
  2292  000786  C1B5  FFDA         	movff	recv_msg@qmsg+1,fsr2h
  2293  00078A  62DF               	cpfseq	indf2,c
  2294  00078C  D074               	goto	l2863
  2295                           
  2296                           ; BSR set to: 1
  2297                           ;messages.c: 76: if (qmsg->length > maxlength) {
  2298  00078E  0101               	movlb	1	; () banked
  2299  000790  EE20 F001          	lfsr	2,1
  2300  000794  0101               	movlb	1	; () banked
  2301  000796  51B4               	movf	recv_msg@qmsg& (0+255),w,b
  2302  000798  26D9               	addwf	fsr2l,f,c
  2303  00079A  0101               	movlb	1	; () banked
  2304  00079C  51B5               	movf	(recv_msg@qmsg+1)& (0+255),w,b
  2305  00079E  22DA               	addwfc	fsr2h,f,c
  2306  0007A0  50DF               	movf	indf2,w,c
  2307  0007A2  0101               	movlb	1	; () banked
  2308  0007A4  0101               	movlb	1	; () banked
  2309  0007A6  5DAA               	subwf	recv_msg@maxlength& (0+255),w,b
  2310  0007A8  B0D8               	btfsc	status,0,c
  2311  0007AA  D002               	goto	l2847
  2312                           
  2313                           ; BSR set to: 1
  2314                           ;messages.c: 77: return (-3);
  2315  0007AC  0EFD               	movlw	253
  2316  0007AE  0012               	return	
  2317  0007B0                     l2847:
  2318                           
  2319                           ; BSR set to: 1
  2320                           ;messages.c: 78: }
  2321                           ;messages.c: 80: tlength = qmsg->length;
  2322  0007B0  0101               	movlb	1	; () banked
  2323  0007B2  EE20 F001          	lfsr	2,1
  2324  0007B6  0101               	movlb	1	; () banked
  2325  0007B8  51B4               	movf	recv_msg@qmsg& (0+255),w,b
  2326  0007BA  26D9               	addwf	fsr2l,f,c
  2327  0007BC  0101               	movlb	1	; () banked
  2328  0007BE  51B5               	movf	(recv_msg@qmsg+1)& (0+255),w,b
  2329  0007C0  22DA               	addwfc	fsr2h,f,c
  2330  0007C2  50DF               	movf	indf2,w,c
  2331  0007C4  0101               	movlb	1	; () banked
  2332  0007C6  6FAF               	movwf	??_recv_msg& (0+255),b
  2333  0007C8  0101               	movlb	1	; () banked
  2334  0007CA  51AF               	movf	??_recv_msg& (0+255),w,b
  2335  0007CC  0101               	movlb	1	; () banked
  2336  0007CE  0101               	movlb	1	; () banked
  2337  0007D0  6FB2               	movwf	recv_msg@tlength& (0+255),b
  2338  0007D2  0101               	movlb	1	; () banked
  2339  0007D4  6BB3               	clrf	(recv_msg@tlength+1)& (0+255),b
  2340                           
  2341                           ; BSR set to: 1
  2342                           ;messages.c: 81: memcpy(data, qmsg->data, tlength);
  2343  0007D6  0101               	movlb	1	; () banked
  2344  0007D8  0101               	movlb	1	; () banked
  2345  0007DA  C1AE  F1A3         	movff	recv_msg@data+1,memcpy@d1+1
  2346  0007DE  0101               	movlb	1	; () banked
  2347  0007E0  0101               	movlb	1	; () banked
  2348  0007E2  C1AD  F1A2         	movff	recv_msg@data,memcpy@d1
  2349  0007E6  0E03               	movlw	3
  2350  0007E8  0101               	movlb	1	; () banked
  2351  0007EA  0101               	movlb	1	; () banked
  2352  0007EC  25B4               	addwf	recv_msg@qmsg& (0+255),w,b
  2353  0007EE  0101               	movlb	1	; () banked
  2354  0007F0  6FAF               	movwf	??_recv_msg& (0+255),b
  2355  0007F2  0E00               	movlw	0
  2356  0007F4  0101               	movlb	1	; () banked
  2357  0007F6  0101               	movlb	1	; () banked
  2358  0007F8  21B5               	addwfc	(recv_msg@qmsg+1)& (0+255),w,b
  2359  0007FA  0101               	movlb	1	; () banked
  2360  0007FC  6FB0               	movwf	(??_recv_msg+1)& (0+255),b
  2361  0007FE  C1AF  F1A4         	movff	??_recv_msg,memcpy@s1
  2362  000802  C1B0  F1A5         	movff	??_recv_msg+1,memcpy@s1+1
  2363  000806  C1B2  F1A6         	movff	recv_msg@tlength,memcpy@n
  2364  00080A  C1B3  F1A7         	movff	recv_msg@tlength+1,memcpy@n+1
  2365  00080E  ECAB  F007         	call	_memcpy	;wreg free
  2366                           
  2367                           ;messages.c: 87: qptr->cur_read_ind = (qptr->cur_read_ind + 1) % 4;
  2368  000812  0101               	movlb	1	; () banked
  2369  000814  EE20 F035          	lfsr	2,53
  2370  000818  0101               	movlb	1	; () banked
  2371  00081A  51A8               	movf	recv_msg@qptr& (0+255),w,b
  2372  00081C  26D9               	addwf	fsr2l,f,c
  2373  00081E  0101               	movlb	1	; () banked
  2374  000820  51A9               	movf	(recv_msg@qptr+1)& (0+255),w,b
  2375  000822  22DA               	addwfc	fsr2h,f,c
  2376  000824  0101               	movlb	1	; () banked
  2377  000826  EE10 F035          	lfsr	1,53
  2378  00082A  0101               	movlb	1	; () banked
  2379  00082C  51A8               	movf	recv_msg@qptr& (0+255),w,b
  2380  00082E  26E1               	addwf	fsr1l,f,c
  2381  000830  0101               	movlb	1	; () banked
  2382  000832  51A9               	movf	(recv_msg@qptr+1)& (0+255),w,b
  2383  000834  22E2               	addwfc	fsr1h,f,c
  2384  000836  50E7               	movf	indf1,w,c
  2385  000838  0101               	movlb	1	; () banked
  2386  00083A  6FAF               	movwf	??_recv_msg& (0+255),b
  2387  00083C  0101               	movlb	1	; () banked
  2388  00083E  29AF               	incf	??_recv_msg& (0+255),w,b
  2389  000840  0B03               	andlw	3
  2390  000842  6EDF               	movwf	indf2,c
  2391                           
  2392                           ; BSR set to: 1
  2393                           ;messages.c: 89: (*msgtype) = qmsg->msgtype;
  2394  000844  0101               	movlb	1	; () banked
  2395  000846  EE20 F002          	lfsr	2,2
  2396  00084A  0101               	movlb	1	; () banked
  2397  00084C  51B4               	movf	recv_msg@qmsg& (0+255),w,b
  2398  00084E  26D9               	addwf	fsr2l,f,c
  2399  000850  0101               	movlb	1	; () banked
  2400  000852  51B5               	movf	(recv_msg@qmsg+1)& (0+255),w,b
  2401  000854  22DA               	addwfc	fsr2h,f,c
  2402  000856  C1AB  FFE1         	movff	recv_msg@msgtype,fsr1l
  2403  00085A  C1AC  FFE2         	movff	recv_msg@msgtype+1,fsr1h
  2404  00085E  CFDF FFE7          	movff	indf2,indf1
  2405                           
  2406                           ; BSR set to: 1
  2407                           ;messages.c: 91: qmsg->full = 0;
  2408  000862  C1B4  FFD9         	movff	recv_msg@qmsg,fsr2l
  2409  000866  C1B5  FFDA         	movff	recv_msg@qmsg+1,fsr2h
  2410  00086A  0E00               	movlw	0
  2411  00086C  6EDF               	movwf	indf2,c
  2412                           
  2413                           ; BSR set to: 1
  2414                           ;messages.c: 92: return (tlength);
  2415  00086E  0101               	movlb	1	; () banked
  2416  000870  0101               	movlb	1	; () banked
  2417  000872  51B2               	movf	recv_msg@tlength& (0+255),w,b
  2418  000874  0012               	return	
  2419  000876                     l2863:
  2420                           
  2421                           ; BSR set to: 1
  2422                           ;messages.c: 94: return (-4);
  2423  000876  0EFC               	movlw	252
  2424  000878  0012               	return	
  2425  00087A                     __end_of_recv_msg:
  2426                           	opt stack 0
  2427                           tblptru	equ	0xFF8
  2428                           tblptrh	equ	0xFF7
  2429                           tblptrl	equ	0xFF6
  2430                           tablat	equ	0xFF5
  2431                           prodh	equ	0xFF4
  2432                           prodl	equ	0xFF3
  2433                           intcon	equ	0xFF2
  2434                           postinc0	equ	0xFEE
  2435                           wreg	equ	0xFE8
  2436                           indf1	equ	0xFE7
  2437                           fsr1h	equ	0xFE2
  2438                           fsr1l	equ	0xFE1
  2439                           indf2	equ	0xFDF
  2440                           fsr2h	equ	0xFDA
  2441                           fsr2l	equ	0xFD9
  2442                           status	equ	0xFD8
  2443                           
  2444 ;; *************** function _memcpy *****************
  2445 ;; Defined at:
  2446 ;;		line 11 in file "/Applications/microchip/xc8/v1.30/sources/common/memcpy.c"
  2447 ;; Parameters:    Size  Location     Type
  2448 ;;  d1              2    0[BANK1 ] PTR void 
  2449 ;;		 -> FromMainLow_MQ.queue(52), FromMainHigh_MQ.queue(52), ToMainHigh_MQ.queue(52), ToMainLow_MQ.queue(52), 
  2450 ;;		 -> FromMainHigh_MQ(54), FromMainLow_MQ(54), ToMainHigh_MQ(54), ToMainLow_MQ(54), 
  2451 ;;		 -> main@msgbuffer(11), 
  2452 ;;  s1              2    2[BANK1 ] PTR const void 
  2453 ;;		 -> ToMainLow_MQ.data(10), ToMainHigh_MQ.data(10), FromMainLow_MQ.data(10), FromMainHigh_MQ.data(10), 
  2454 ;;		 -> ToMainLow_MQ.queue.data(10), ToMainHigh_MQ.queue.data(10), FromMainHigh_MQ.queue.data(10), FromMainLow_MQ.queue.
      +data(10), 
  2455 ;;		 -> timer0_lthread@val(2), NULL(0), i2c_int_handler@error_buf(3), FromMainHigh_MQ(54), 
  2456 ;;		 -> FromMainLow_MQ(54), ToMainHigh_MQ(54), ToMainLow_MQ(54), main@ic(40), 
  2457 ;;		 -> main@uc(5), 
  2458 ;;  n               2    4[BANK1 ] unsigned int 
  2459 ;; Auto vars:     Size  Location     Type
  2460 ;;  s               2   37[BANK0 ] PTR const unsigned char 
  2461 ;;		 -> ToMainLow_MQ.data(10), ToMainHigh_MQ.data(10), FromMainLow_MQ.data(10), FromMainHigh_MQ.data(10), 
  2462 ;;		 -> ToMainLow_MQ.queue.data(10), ToMainHigh_MQ.queue.data(10), FromMainHigh_MQ.queue.data(10), FromMainLow_MQ.queue.
      +data(10), 
  2463 ;;		 -> timer0_lthread@val(2), NULL(0), i2c_int_handler@error_buf(3), FromMainHigh_MQ(54), 
  2464 ;;		 -> FromMainLow_MQ(54), ToMainHigh_MQ(54), ToMainLow_MQ(54), main@ic(40), 
  2465 ;;		 -> main@uc(5), 
  2466 ;;  d               2   35[BANK0 ] PTR unsigned char 
  2467 ;;		 -> FromMainLow_MQ.queue(52), FromMainHigh_MQ.queue(52), ToMainHigh_MQ.queue(52), ToMainLow_MQ.queue(52), 
  2468 ;;		 -> FromMainHigh_MQ(54), FromMainLow_MQ(54), ToMainHigh_MQ(54), ToMainLow_MQ(54), 
  2469 ;;		 -> main@msgbuffer(11), 
  2470 ;; Return value:  Size  Location     Type
  2471 ;;                  2    0[BANK1 ] PTR void 
  2472 ;; Registers used:
  2473 ;;		wreg, fsr1l, fsr1h, fsr2l, fsr2h, status,2, status,0
  2474 ;; Tracked objects:
  2475 ;;		On entry : 0/0
  2476 ;;		On exit  : 0/0
  2477 ;;		Unchanged: 0/0
  2478 ;; Data sizes:     COMRAM   BANK0   BANK1   BANK2   BANK3
  2479 ;;      Params:         0       0       6       0       0
  2480 ;;      Locals:         0       4       0       0       0
  2481 ;;      Temps:          0       0       0       0       0
  2482 ;;      Totals:         0       4       6       0       0
  2483 ;;Total ram usage:       10 bytes
  2484 ;; Hardware stack levels used:    1
  2485 ;; Hardware stack levels required when called:   10
  2486 ;; This function calls:
  2487 ;;		Nothing
  2488 ;; This function is called by:
  2489 ;;		_recv_msg
  2490 ;; This function uses a non-reentrant model
  2491 ;;
  2492                           
  2493                           	psect	text15
  2494  000F56                     __ptext15:
  2495                           	opt stack 0
  2496  000F56                     _memcpy:
  2497                           	opt stack 18
  2498                           
  2499                           ; BSR set to: 1
  2500                           ;incstack = 0
  2501  000F56  0101               	movlb	1	; () banked
  2502  000F58  0100               	movlb	0	; () banked
  2503  000F5A  C1A5  F0DC         	movff	memcpy@s1+1,memcpy@s+1
  2504  000F5E  0101               	movlb	1	; () banked
  2505  000F60  0100               	movlb	0	; () banked
  2506  000F62  C1A4  F0DB         	movff	memcpy@s1,memcpy@s
  2507  000F66  0101               	movlb	1	; () banked
  2508  000F68  0100               	movlb	0	; () banked
  2509  000F6A  C1A3  F0DA         	movff	memcpy@d1+1,memcpy@d+1
  2510  000F6E  0101               	movlb	1	; () banked
  2511  000F70  0100               	movlb	0	; () banked
  2512  000F72  C1A2  F0D9         	movff	memcpy@d1,memcpy@d
  2513  000F76  D012               	goto	l2833
  2514  000F78                     l2827:
  2515  000F78  C0DB  FFD9         	movff	memcpy@s,fsr2l
  2516  000F7C  C0DC  FFDA         	movff	memcpy@s+1,fsr2h
  2517  000F80  C0D9  FFE1         	movff	memcpy@d,fsr1l
  2518  000F84  C0DA  FFE2         	movff	memcpy@d+1,fsr1h
  2519  000F88  CFDF FFE7          	movff	indf2,indf1
  2520  000F8C  0100               	movlb	0	; () banked
  2521  000F8E  0100               	movlb	0	; () banked
  2522  000F90  4BDB               	infsnz	memcpy@s& (0+255),f,b
  2523  000F92  2BDC               	incf	(memcpy@s+1)& (0+255),f,b
  2524                           
  2525                           ; BSR set to: 0
  2526  000F94  0100               	movlb	0	; () banked
  2527  000F96  0100               	movlb	0	; () banked
  2528  000F98  4BD9               	infsnz	memcpy@d& (0+255),f,b
  2529  000F9A  2BDA               	incf	(memcpy@d+1)& (0+255),f,b
  2530  000F9C                     l2833:
  2531                           
  2532                           ; BSR set to: 0
  2533  000F9C  0101               	movlb	1	; () banked
  2534  000F9E  0101               	movlb	1	; () banked
  2535  000FA0  07A6               	decf	memcpy@n& (0+255),f,b
  2536  000FA2  A0D8               	btfss	status,0,c
  2537  000FA4  07A7               	decf	(memcpy@n+1)& (0+255),f,b
  2538  000FA6  0101               	movlb	1	; () banked
  2539  000FA8  29A6               	incf	memcpy@n& (0+255),w,b
  2540  000FAA  B4D8               	btfsc	status,2,c
  2541  000FAC  29A7               	incf	(memcpy@n+1)& (0+255),w,b
  2542  000FAE  B4D8               	btfsc	status,2,c
  2543                           
  2544                           ; BSR set to: 1
  2545                           
  2546                           ; BSR set to: 1
  2547                           ;	Return value of _memcpy is never used
  2548  000FB0  0012               	return	
  2549  000FB2  D7E2               	goto	l2827
  2550  000FB4                     __end_of_memcpy:
  2551                           	opt stack 0
  2552                           tblptru	equ	0xFF8
  2553                           tblptrh	equ	0xFF7
  2554                           tblptrl	equ	0xFF6
  2555                           tablat	equ	0xFF5
  2556                           prodh	equ	0xFF4
  2557                           prodl	equ	0xFF3
  2558                           intcon	equ	0xFF2
  2559                           postinc0	equ	0xFEE
  2560                           wreg	equ	0xFE8
  2561                           indf1	equ	0xFE7
  2562                           fsr1h	equ	0xFE2
  2563                           fsr1l	equ	0xFE1
  2564                           indf2	equ	0xFDF
  2565                           fsr2h	equ	0xFDA
  2566                           fsr2l	equ	0xFD9
  2567                           status	equ	0xFD8
  2568                           
  2569 ;; *************** function _OpenTimer0 *****************
  2570 ;; Defined at:
  2571 ;;		line 18 in file "/Applications/microchip/xc8/v1.30/sources/pic18/plib/Timers/t0open.c"
  2572 ;; Parameters:    Size  Location     Type
  2573 ;;  config          1    wreg     unsigned char 
  2574 ;; Auto vars:     Size  Location     Type
  2575 ;;  config          1   35[BANK0 ] unsigned char 
  2576 ;; Return value:  Size  Location     Type
  2577 ;;		None               void
  2578 ;; Registers used:
  2579 ;;		wreg, status,2, status,0
  2580 ;; Tracked objects:
  2581 ;;		On entry : 0/0
  2582 ;;		On exit  : 0/0
  2583 ;;		Unchanged: 0/0
  2584 ;; Data sizes:     COMRAM   BANK0   BANK1   BANK2   BANK3
  2585 ;;      Params:         0       0       0       0       0
  2586 ;;      Locals:         0       1       0       0       0
  2587 ;;      Temps:          0       0       0       0       0
  2588 ;;      Totals:         0       1       0       0       0
  2589 ;;Total ram usage:        1 bytes
  2590 ;; Hardware stack levels used:    1
  2591 ;; Hardware stack levels required when called:   10
  2592 ;; This function calls:
  2593 ;;		Nothing
  2594 ;; This function is called by:
  2595 ;;		_main
  2596 ;; This function uses a non-reentrant model
  2597 ;;
  2598                           
  2599                           	psect	text16
  2600  0012A4                     __ptext16:
  2601                           	opt stack 0
  2602  0012A4                     _OpenTimer0:
  2603                           	opt stack 20
  2604                           
  2605                           ; BSR set to: 1
  2606                           ;incstack = 0
  2607                           ;OpenTimer0@config stored from wreg
  2608  0012A4  CFE8 F0D9          	movff	wreg,OpenTimer0@config
  2609  0012A8  0100               	movlb	0	; () banked
  2610  0012AA  0100               	movlb	0	; () banked
  2611  0012AC  51D9               	movf	OpenTimer0@config& (0+255),w,b
  2612  0012AE  0B7F               	andlw	127
  2613  0012B0  6ED5               	movwf	4053,c	;volatile
  2614                           
  2615                           ; BSR set to: 0
  2616  0012B2  0E00               	movlw	0
  2617  0012B4  6ED7               	movwf	4055,c	;volatile
  2618                           
  2619                           ; BSR set to: 0
  2620  0012B6  0E00               	movlw	0
  2621  0012B8  6ED6               	movwf	4054,c	;volatile
  2622                           
  2623                           ; BSR set to: 0
  2624  0012BA  94F2               	bcf	intcon,2,c	;volatile
  2625                           
  2626                           ; BSR set to: 0
  2627  0012BC  0100               	movlb	0	; () banked
  2628  0012BE  0100               	movlb	0	; () banked
  2629  0012C0  AFD9               	btfss	OpenTimer0@config& (0+255),7,b
  2630  0012C2  D002               	goto	l422
  2631                           
  2632                           ; BSR set to: 0
  2633  0012C4  8AF2               	bsf	intcon,5,c	;volatile
  2634  0012C6  D001               	goto	l423
  2635  0012C8                     l422:
  2636                           
  2637                           ; BSR set to: 0
  2638  0012C8  9AF2               	bcf	intcon,5,c	;volatile
  2639  0012CA                     l423:
  2640                           
  2641                           ; BSR set to: 0
  2642  0012CA  8ED5               	bsf	4053,7,c	;volatile
  2643                           
  2644                           ; BSR set to: 0
  2645  0012CC  0012               	return	
  2646  0012CE                     __end_of_OpenTimer0:
  2647                           	opt stack 0
  2648                           tblptru	equ	0xFF8
  2649                           tblptrh	equ	0xFF7
  2650                           tblptrl	equ	0xFF6
  2651                           tablat	equ	0xFF5
  2652                           prodh	equ	0xFF4
  2653                           prodl	equ	0xFF3
  2654                           intcon	equ	0xFF2
  2655                           postinc0	equ	0xFEE
  2656                           wreg	equ	0xFE8
  2657                           indf1	equ	0xFE7
  2658                           fsr1h	equ	0xFE2
  2659                           fsr1l	equ	0xFE1
  2660                           indf2	equ	0xFDF
  2661                           fsr2h	equ	0xFDA
  2662                           fsr2l	equ	0xFD9
  2663                           status	equ	0xFD8
  2664                           
  2665 ;; *************** function _OpenADC *****************
  2666 ;; Defined at:
  2667 ;;		line 68 in file "/Applications/microchip/xc8/v1.30/sources/pic18/plib/ADC/adcopen.c"
  2668 ;; Parameters:    Size  Location     Type
  2669 ;;  config          1    wreg     unsigned char 
  2670 ;;  config2         1   35[BANK0 ] unsigned char 
  2671 ;;  portconfig      1   36[BANK0 ] unsigned char 
  2672 ;; Auto vars:     Size  Location     Type
  2673 ;;  config          1    0[BANK1 ] unsigned char 
  2674 ;; Return value:  Size  Location     Type
  2675 ;;		None               void
  2676 ;; Registers used:
  2677 ;;		wreg, status,2, status,0
  2678 ;; Tracked objects:
  2679 ;;		On entry : 0/0
  2680 ;;		On exit  : 0/0
  2681 ;;		Unchanged: 0/0
  2682 ;; Data sizes:     COMRAM   BANK0   BANK1   BANK2   BANK3
  2683 ;;      Params:         0       2       0       0       0
  2684 ;;      Locals:         0       0       1       0       0
  2685 ;;      Temps:          0       2       0       0       0
  2686 ;;      Totals:         0       4       1       0       0
  2687 ;;Total ram usage:        5 bytes
  2688 ;; Hardware stack levels used:    1
  2689 ;; Hardware stack levels required when called:   10
  2690 ;; This function calls:
  2691 ;;		Nothing
  2692 ;; This function is called by:
  2693 ;;		_main
  2694 ;; This function uses a non-reentrant model
  2695 ;;
  2696                           
  2697                           	psect	text17
  2698  000D6C                     __ptext17:
  2699                           	opt stack 0
  2700  000D6C                     _OpenADC:
  2701                           	opt stack 20
  2702                           
  2703                           ; BSR set to: 0
  2704                           ;incstack = 0
  2705                           ;OpenADC@config stored from wreg
  2706  000D6C  CFE8 F1A2          	movff	wreg,OpenADC@config
  2707  000D70  0E00               	movlw	0
  2708  000D72  6EC2               	movwf	4034,c	;volatile
  2709  000D74  0E00               	movlw	0
  2710  000D76  6EC0               	movwf	4032,c	;volatile
  2711  000D78  0100               	movlb	0	; () banked
  2712  000D7A  0100               	movlb	0	; () banked
  2713  000D7C  90D8               	bcf	status,0,c
  2714  000D7E  31D9               	rrcf	OpenADC@config2& (0+255),w,b
  2715  000D80  0B3C               	andlw	60
  2716  000D82  6EC2               	movwf	4034,c	;volatile
  2717                           
  2718                           ; BSR set to: 0
  2719  000D84  C0D9  F0DB         	movff	OpenADC@config2,??_OpenADC
  2720  000D88  0100               	movlb	0	; () banked
  2721  000D8A  3BDB               	swapf	??_OpenADC& (0+255),f,b
  2722  000D8C  0EF0               	movlw	240
  2723  000D8E  17DB               	andwf	??_OpenADC& (0+255),f,b
  2724  000D90  0E30               	movlw	48
  2725  000D92  0100               	movlb	0	; () banked
  2726  000D94  17DB               	andwf	??_OpenADC& (0+255),f,b
  2727  000D96  0100               	movlb	0	; () banked
  2728  000D98  0100               	movlb	0	; () banked
  2729  000D9A  51DA               	movf	OpenADC@portconfig& (0+255),w,b
  2730  000D9C  0B0F               	andlw	15
  2731  000D9E  0100               	movlb	0	; () banked
  2732  000DA0  11DB               	iorwf	??_OpenADC& (0+255),w,b
  2733  000DA2  6EC1               	movwf	4033,c	;volatile
  2734                           
  2735                           ; BSR set to: 0
  2736  000DA4  C1A2  F0DB         	movff	OpenADC@config,??_OpenADC
  2737  000DA8  0100               	movlb	0	; () banked
  2738  000DAA  90D8               	bcf	status,0,c
  2739  000DAC  37DB               	rlcf	??_OpenADC& (0+255),f,b
  2740  000DAE  0100               	movlb	0	; () banked
  2741  000DB0  90D8               	bcf	status,0,c
  2742  000DB2  37DB               	rlcf	??_OpenADC& (0+255),f,b
  2743  000DB4  0E38               	movlw	56
  2744  000DB6  0100               	movlb	0	; () banked
  2745  000DB8  17DB               	andwf	??_OpenADC& (0+255),f,b
  2746  000DBA  C1A2  F0DC         	movff	OpenADC@config,??_OpenADC+1
  2747  000DBE  0100               	movlb	0	; () banked
  2748  000DC0  3BDC               	swapf	(??_OpenADC+1)& (0+255),f,b
  2749  000DC2  0E0F               	movlw	15
  2750  000DC4  17DC               	andwf	(??_OpenADC+1)& (0+255),f,b
  2751  000DC6  0E07               	movlw	7
  2752  000DC8  0100               	movlb	0	; () banked
  2753  000DCA  17DC               	andwf	(??_OpenADC+1)& (0+255),f,b
  2754  000DCC  0101               	movlb	1	; () banked
  2755  000DCE  0101               	movlb	1	; () banked
  2756  000DD0  51A2               	movf	OpenADC@config& (0+255),w,b
  2757  000DD2  0B80               	andlw	128
  2758  000DD4  0100               	movlb	0	; () banked
  2759  000DD6  11DC               	iorwf	(??_OpenADC+1)& (0+255),w,b
  2760  000DD8  0100               	movlb	0	; () banked
  2761  000DDA  11DB               	iorwf	??_OpenADC& (0+255),w,b
  2762  000DDC  6EC0               	movwf	4032,c	;volatile
  2763                           
  2764                           ; BSR set to: 0
  2765  000DDE  0100               	movlb	0	; () banked
  2766  000DE0  0100               	movlb	0	; () banked
  2767  000DE2  AFD9               	btfss	OpenADC@config2& (0+255),7,b
  2768  000DE4  D003               	goto	l401
  2769                           
  2770                           ; BSR set to: 0
  2771  000DE6  9C9E               	bcf	3998,6,c	;volatile
  2772  000DE8  8C9D               	bsf	3997,6,c	;volatile
  2773  000DEA  8CF2               	bsf	intcon,6,c	;volatile
  2774  000DEC                     l401:
  2775                           
  2776                           ; BSR set to: 0
  2777  000DEC  80C2               	bsf	4034,0,c	;volatile
  2778                           
  2779                           ; BSR set to: 0
  2780  000DEE  0012               	return	
  2781  000DF0                     __end_of_OpenADC:
  2782                           	opt stack 0
  2783                           tblptru	equ	0xFF8
  2784                           tblptrh	equ	0xFF7
  2785                           tblptrl	equ	0xFF6
  2786                           tablat	equ	0xFF5
  2787                           prodh	equ	0xFF4
  2788                           prodl	equ	0xFF3
  2789                           intcon	equ	0xFF2
  2790                           postinc0	equ	0xFEE
  2791                           wreg	equ	0xFE8
  2792                           indf1	equ	0xFE7
  2793                           fsr1h	equ	0xFE2
  2794                           fsr1l	equ	0xFE1
  2795                           indf2	equ	0xFDF
  2796                           fsr2h	equ	0xFDA
  2797                           fsr2l	equ	0xFD9
  2798                           status	equ	0xFD8
  2799                           
  2800 ;; *************** function _InterruptHandlerLow *****************
  2801 ;; Defined at:
  2802 ;;		line 130 in file "../src/interrupts.c"
  2803 ;; Parameters:    Size  Location     Type
  2804 ;;		None
  2805 ;; Auto vars:     Size  Location     Type
  2806 ;;		None
  2807 ;; Return value:  Size  Location     Type
  2808 ;;		None               void
  2809 ;; Registers used:
  2810 ;;		wreg, fsr1l, fsr1h, fsr2l, fsr2h, status,2, status,0, prodl, prodh, cstack
  2811 ;; Tracked objects:
  2812 ;;		On entry : 0/0
  2813 ;;		On exit  : 0/0
  2814 ;;		Unchanged: 0/0
  2815 ;; Data sizes:     COMRAM   BANK0   BANK1   BANK2   BANK3
  2816 ;;      Params:         0       0       0       0       0
  2817 ;;      Locals:         0       0       0       0       0
  2818 ;;      Temps:         17       0       0       0       0
  2819 ;;      Totals:        17       0       0       0       0
  2820 ;;Total ram usage:       17 bytes
  2821 ;; Hardware stack levels used:    1
  2822 ;; Hardware stack levels required when called:    9
  2823 ;; This function calls:
  2824 ;;		_timer1_int_handler
  2825 ;;		_uart_recv_int_handler
  2826 ;; This function is called by:
  2827 ;;		Interrupt level 1
  2828 ;; This function uses a non-reentrant model
  2829 ;;
  2830                           
  2831                           	psect	intcodelo
  2832  000018                     __pintcodelo:
  2833                           	opt stack 0
  2834  000018                     _InterruptHandlerLow:
  2835                           	opt stack 17
  2836                           
  2837                           ; BSR set to: 0
  2838                           ;incstack = 0
  2839  000018  CFD8 F01E          	movff	status,??_InterruptHandlerLow
  2840  00001C  CFE8 F01F          	movff	wreg,??_InterruptHandlerLow+1
  2841  000020  CFE0 F020          	movff	bsr,??_InterruptHandlerLow+2
  2842  000024  CFFA F021          	movff	pclath,??_InterruptHandlerLow+3
  2843  000028  CFFB F022          	movff	pclatu,??_InterruptHandlerLow+4
  2844  00002C  CFE9 F023          	movff	fsr0l,??_InterruptHandlerLow+5
  2845  000030  CFEA F024          	movff	fsr0h,??_InterruptHandlerLow+6
  2846  000034  CFE1 F025          	movff	fsr1l,??_InterruptHandlerLow+7
  2847  000038  CFE2 F026          	movff	fsr1h,??_InterruptHandlerLow+8
  2848  00003C  CFD9 F027          	movff	fsr2l,??_InterruptHandlerLow+9
  2849  000040  CFDA F028          	movff	fsr2h,??_InterruptHandlerLow+10
  2850  000044  CFF3 F029          	movff	prodl,??_InterruptHandlerLow+11
  2851  000048  CFF4 F02A          	movff	prodh,??_InterruptHandlerLow+12
  2852  00004C  CFF6 F02B          	movff	tblptrl,??_InterruptHandlerLow+13
  2853  000050  CFF7 F02C          	movff	tblptrh,??_InterruptHandlerLow+14
  2854  000054  CFF8 F02D          	movff	tblptru,??_InterruptHandlerLow+15
  2855  000058  CFF5 F02E          	movff	tablat,??_InterruptHandlerLow+16
  2856                           
  2857                           ;interrupts.c: 132: if (PIR1bits.TMR1IF) {
  2858  00005C  A09E               	btfss	3998,0,c	;volatile
  2859  00005E  D003               	goto	i1l2545
  2860                           
  2861                           ;interrupts.c: 133: PIR1bits.TMR1IF = 0;
  2862  000060  909E               	bcf	3998,0,c	;volatile
  2863                           
  2864                           ;interrupts.c: 134: timer1_int_handler();
  2865  000062  EC23  F009         	call	_timer1_int_handler	;wreg free
  2866  000066                     i1l2545:
  2867                           
  2868                           ;interrupts.c: 135: }
  2869                           ;interrupts.c: 138: if (PIR1bits.RCIF) {
  2870  000066  AA9E               	btfss	3998,5,c	;volatile
  2871  000068  D003               	goto	i1l52
  2872                           
  2873                           ;interrupts.c: 139: PIR1bits.RCIF = 0;
  2874  00006A  9A9E               	bcf	3998,5,c	;volatile
  2875                           
  2876                           ;interrupts.c: 140: uart_recv_int_handler();
  2877  00006C  ECCF  F005         	call	_uart_recv_int_handler	;wreg free
  2878  000070                     i1l52:
  2879  000070  C02E  FFF5         	movff	??_InterruptHandlerLow+16,tablat
  2880  000074  C02D  FFF8         	movff	??_InterruptHandlerLow+15,tblptru
  2881  000078  C02C  FFF7         	movff	??_InterruptHandlerLow+14,tblptrh
  2882  00007C  C02B  FFF6         	movff	??_InterruptHandlerLow+13,tblptrl
  2883  000080  C02A  FFF4         	movff	??_InterruptHandlerLow+12,prodh
  2884  000084  C029  FFF3         	movff	??_InterruptHandlerLow+11,prodl
  2885  000088  C028  FFDA         	movff	??_InterruptHandlerLow+10,fsr2h
  2886  00008C  C027  FFD9         	movff	??_InterruptHandlerLow+9,fsr2l
  2887  000090  C026  FFE2         	movff	??_InterruptHandlerLow+8,fsr1h
  2888  000094  C025  FFE1         	movff	??_InterruptHandlerLow+7,fsr1l
  2889  000098  C024  FFEA         	movff	??_InterruptHandlerLow+6,fsr0h
  2890  00009C  C023  FFE9         	movff	??_InterruptHandlerLow+5,fsr0l
  2891  0000A0  C022  FFFB         	movff	??_InterruptHandlerLow+4,pclatu
  2892  0000A4  C021  FFFA         	movff	??_InterruptHandlerLow+3,pclath
  2893  0000A8  C020  FFE0         	movff	??_InterruptHandlerLow+2,bsr
  2894  0000AC  C01F  FFE8         	movff	??_InterruptHandlerLow+1,wreg
  2895  0000B0  C01E  FFD8         	movff	??_InterruptHandlerLow,status
  2896  0000B4  0010               	retfie	
  2897  0000B6                     __end_of_InterruptHandlerLow:
  2898                           	opt stack 0
  2899                           pclatu	equ	0xFFB
  2900                           pclath	equ	0xFFA
  2901                           tblptru	equ	0xFF8
  2902                           tblptrh	equ	0xFF7
  2903                           tblptrl	equ	0xFF6
  2904                           tablat	equ	0xFF5
  2905                           prodh	equ	0xFF4
  2906                           prodl	equ	0xFF3
  2907                           intcon	equ	0xFF2
  2908                           postinc0	equ	0xFEE
  2909                           fsr0h	equ	0xFEA
  2910                           fsr0l	equ	0xFE9
  2911                           wreg	equ	0xFE8
  2912                           indf1	equ	0xFE7
  2913                           fsr1h	equ	0xFE2
  2914                           fsr1l	equ	0xFE1
  2915                           bsr	equ	0xFE0
  2916                           indf2	equ	0xFDF
  2917                           fsr2h	equ	0xFDA
  2918                           fsr2l	equ	0xFD9
  2919                           status	equ	0xFD8
  2920                           
  2921 ;; *************** function _uart_recv_int_handler *****************
  2922 ;; Defined at:
  2923 ;;		line 11 in file "../src/my_uart.c"
  2924 ;; Parameters:    Size  Location     Type
  2925 ;;		None
  2926 ;; Auto vars:     Size  Location     Type
  2927 ;;		None
  2928 ;; Return value:  Size  Location     Type
  2929 ;;		None               void
  2930 ;; Registers used:
  2931 ;;		wreg, fsr1l, fsr1h, fsr2l, fsr2h, status,2, status,0, prodl, prodh, cstack
  2932 ;; Tracked objects:
  2933 ;;		On entry : 0/0
  2934 ;;		On exit  : 0/0
  2935 ;;		Unchanged: 0/0
  2936 ;; Data sizes:     COMRAM   BANK0   BANK1   BANK2   BANK3
  2937 ;;      Params:         0       0       0       0       0
  2938 ;;      Locals:         0       0       0       0       0
  2939 ;;      Temps:          1       0       0       0       0
  2940 ;;      Totals:         1       0       0       0       0
  2941 ;;Total ram usage:        1 bytes
  2942 ;; Hardware stack levels used:    1
  2943 ;; Hardware stack levels required when called:    8
  2944 ;; This function calls:
  2945 ;;		_ReadUSART
  2946 ;;		_ToMainLow_sendmsg
  2947 ;; This function is called by:
  2948 ;;		_InterruptHandlerLow
  2949 ;; This function uses a non-reentrant model
  2950 ;;
  2951                           
  2952                           	psect	text19
  2953  000B9E                     __ptext19:
  2954                           	opt stack 0
  2955  000B9E                     _uart_recv_int_handler:
  2956                           	opt stack 17
  2957                           
  2958                           ;my_uart.c: 20: if ((PIR1bits.RCIF)) {
  2959                           
  2960                           ;incstack = 0
  2961  000B9E  AA9E               	btfss	3998,5,c	;volatile
  2962  000BA0  D03C               	goto	i1l2533
  2963                           
  2964                           ;my_uart.c: 21: uc_ptr->buffer[uc_ptr->buflen] = ReadUSART();
  2965  000BA2  EE20 F004          	lfsr	2,4
  2966  000BA6  504E               	movf	_uc_ptr,w,c
  2967  000BA8  26D9               	addwf	fsr2l,f,c
  2968  000BAA  504F               	movf	_uc_ptr+1,w,c
  2969  000BAC  22DA               	addwfc	fsr2h,f,c
  2970  000BAE  50DF               	movf	indf2,w,c
  2971  000BB0  6E1B               	movwf	??_uart_recv_int_handler& (0+255),c
  2972  000BB2  501B               	movf	??_uart_recv_int_handler,w,c
  2973  000BB4  0D01               	mullw	1
  2974  000BB6  50F3               	movf	prodl,w,c
  2975  000BB8  244E               	addwf	_uc_ptr,w,c
  2976  000BBA  6ED9               	movwf	fsr2l,c
  2977  000BBC  50F4               	movf	prodh,w,c
  2978  000BBE  204F               	addwfc	_uc_ptr+1,w,c
  2979  000BC0  6EDA               	movwf	fsr2h,c
  2980  000BC2  ECC4  F009         	call	_ReadUSART	;wreg free
  2981  000BC6  6EDF               	movwf	indf2,c
  2982                           
  2983                           ;my_uart.c: 25: uc_ptr->buflen++;
  2984  000BC8  EE20 F004          	lfsr	2,4
  2985  000BCC  504E               	movf	_uc_ptr,w,c
  2986  000BCE  26D9               	addwf	fsr2l,f,c
  2987  000BD0  504F               	movf	_uc_ptr+1,w,c
  2988  000BD2  22DA               	addwfc	fsr2h,f,c
  2989  000BD4  2ADF               	incf	indf2,f,c
  2990                           
  2991                           ;my_uart.c: 27: if (uc_ptr->buflen == 4) {
  2992  000BD6  EE20 F004          	lfsr	2,4
  2993  000BDA  504E               	movf	_uc_ptr,w,c
  2994  000BDC  26D9               	addwf	fsr2l,f,c
  2995  000BDE  504F               	movf	_uc_ptr+1,w,c
  2996  000BE0  22DA               	addwfc	fsr2h,f,c
  2997  000BE2  0E04               	movlw	4
  2998  000BE4  62DF               	cpfseq	indf2,c
  2999  000BE6  D019               	goto	i1l2533
  3000                           
  3001                           ;my_uart.c: 28: ToMainLow_sendmsg(uc_ptr->buflen, 31, (void *) uc_ptr->buffer);
  3002  000BE8  6E1B               	movwf	??_uart_recv_int_handler& (0+255),c
  3003  000BEA  0E1F               	movlw	31
  3004  000BEC  6E17               	movwf	ToMainLow_sendmsg@msgtype,c
  3005  000BEE  501B               	movf	??_uart_recv_int_handler& (0+255),w,c
  3006  000BF0  C04F  F019         	movff	_uc_ptr+1,ToMainLow_sendmsg@data+1
  3007  000BF4  C04E  F018         	movff	_uc_ptr,ToMainLow_sendmsg@data
  3008  000BF8  EE20 F004          	lfsr	2,4
  3009  000BFC  504E               	movf	_uc_ptr,w,c
  3010  000BFE  26D9               	addwf	fsr2l,f,c
  3011  000C00  504F               	movf	_uc_ptr+1,w,c
  3012  000C02  22DA               	addwfc	fsr2h,f,c
  3013  000C04  50DF               	movf	indf2,w,c
  3014  000C06  EC90  F009         	call	_ToMainLow_sendmsg
  3015                           
  3016                           ;my_uart.c: 29: uc_ptr->buflen = 0;
  3017  000C0A  EE20 F004          	lfsr	2,4
  3018  000C0E  504E               	movf	_uc_ptr,w,c
  3019  000C10  26D9               	addwf	fsr2l,f,c
  3020  000C12  504F               	movf	_uc_ptr+1,w,c
  3021  000C14  22DA               	addwfc	fsr2h,f,c
  3022  000C16  0E00               	movlw	0
  3023  000C18  6EDF               	movwf	indf2,c
  3024  000C1A                     i1l2533:
  3025                           
  3026                           ;my_uart.c: 30: }
  3027                           ;my_uart.c: 31: }
  3028                           ;my_uart.c: 38: if (USART_Status.OVERRUN_ERROR == 1) {
  3029  000C1A  A64B               	btfss	_USART_Status,3,c
  3030  000C1C  0012               	return	
  3031                           
  3032                           ;my_uart.c: 43: RCSTAbits.CREN = 0;
  3033  000C1E  98AB               	bcf	4011,4,c	;volatile
  3034                           
  3035                           ;my_uart.c: 44: RCSTAbits.CREN = 1;
  3036  000C20  88AB               	bsf	4011,4,c	;volatile
  3037                           
  3038                           ;my_uart.c: 45: ToMainLow_sendmsg(0, 30, (void *) 0);
  3039  000C22  6E1B               	movwf	??_uart_recv_int_handler& (0+255),c
  3040  000C24  0E1E               	movlw	30
  3041  000C26  6E17               	movwf	ToMainLow_sendmsg@msgtype,c
  3042  000C28  501B               	movf	??_uart_recv_int_handler& (0+255),w,c
  3043  000C2A  0E00               	movlw	0
  3044  000C2C  6E19               	movwf	ToMainLow_sendmsg@data+1,c
  3045  000C2E  0E00               	movlw	0
  3046  000C30  6E18               	movwf	ToMainLow_sendmsg@data,c
  3047  000C32  0E00               	movlw	0
  3048  000C34  EC90  F009         	call	_ToMainLow_sendmsg
  3049  000C38  0012               	return	
  3050  000C3A                     __end_of_uart_recv_int_handler:
  3051                           	opt stack 0
  3052                           pclatu	equ	0xFFB
  3053                           pclath	equ	0xFFA
  3054                           tblptru	equ	0xFF8
  3055                           tblptrh	equ	0xFF7
  3056                           tblptrl	equ	0xFF6
  3057                           tablat	equ	0xFF5
  3058                           prodh	equ	0xFF4
  3059                           prodl	equ	0xFF3
  3060                           intcon	equ	0xFF2
  3061                           postinc0	equ	0xFEE
  3062                           fsr0h	equ	0xFEA
  3063                           fsr0l	equ	0xFE9
  3064                           wreg	equ	0xFE8
  3065                           indf1	equ	0xFE7
  3066                           fsr1h	equ	0xFE2
  3067                           fsr1l	equ	0xFE1
  3068                           bsr	equ	0xFE0
  3069                           indf2	equ	0xFDF
  3070                           fsr2h	equ	0xFDA
  3071                           fsr2l	equ	0xFD9
  3072                           status	equ	0xFD8
  3073                           
  3074 ;; *************** function _ReadUSART *****************
  3075 ;; Defined at:
  3076 ;;		line 15 in file "/Applications/microchip/xc8/v1.30/sources/pic18/plib/USART/uread.c"
  3077 ;; Parameters:    Size  Location     Type
  3078 ;;		None
  3079 ;; Auto vars:     Size  Location     Type
  3080 ;;  data            1    0[COMRAM] unsigned char 
  3081 ;; Return value:  Size  Location     Type
  3082 ;;                  1    wreg      unsigned char 
  3083 ;; Registers used:
  3084 ;;		wreg, status,2, status,0
  3085 ;; Tracked objects:
  3086 ;;		On entry : 0/0
  3087 ;;		On exit  : 0/0
  3088 ;;		Unchanged: 0/0
  3089 ;; Data sizes:     COMRAM   BANK0   BANK1   BANK2   BANK3
  3090 ;;      Params:         0       0       0       0       0
  3091 ;;      Locals:         1       0       0       0       0
  3092 ;;      Temps:          0       0       0       0       0
  3093 ;;      Totals:         1       0       0       0       0
  3094 ;;Total ram usage:        1 bytes
  3095 ;; Hardware stack levels used:    1
  3096 ;; Hardware stack levels required when called:    5
  3097 ;; This function calls:
  3098 ;;		Nothing
  3099 ;; This function is called by:
  3100 ;;		_uart_recv_int_handler
  3101 ;; This function uses a non-reentrant model
  3102 ;;
  3103                           
  3104                           	psect	text20
  3105  001388                     __ptext20:
  3106                           	opt stack 0
  3107  001388                     _ReadUSART:
  3108                           	opt stack 19
  3109                           
  3110                           ;incstack = 0
  3111  001388  0EF2               	movlw	242
  3112  00138A  164B               	andwf	_USART_Status,f,c
  3113  00138C  ACAB               	btfss	4011,6,c	;volatile
  3114  00138E  D003               	goto	i1l456
  3115  001390  904B               	bcf	_USART_Status,0,c
  3116  001392  B0AB               	btfsc	4011,0,c	;volatile
  3117  001394  804B               	bsf	_USART_Status,0,c
  3118  001396                     i1l456:
  3119  001396  B4AB               	btfsc	4011,2,c	;volatile
  3120  001398  844B               	bsf	_USART_Status,2,c
  3121  00139A  B2AB               	btfsc	4011,1,c	;volatile
  3122  00139C  864B               	bsf	_USART_Status,3,c
  3123  00139E  CFAE F001          	movff	4014,ReadUSART@data	;volatile
  3124  0013A2  5001               	movf	ReadUSART@data,w,c
  3125  0013A4  0012               	return	
  3126  0013A6                     __end_of_ReadUSART:
  3127                           	opt stack 0
  3128                           pclatu	equ	0xFFB
  3129                           pclath	equ	0xFFA
  3130                           tblptru	equ	0xFF8
  3131                           tblptrh	equ	0xFF7
  3132                           tblptrl	equ	0xFF6
  3133                           tablat	equ	0xFF5
  3134                           prodh	equ	0xFF4
  3135                           prodl	equ	0xFF3
  3136                           intcon	equ	0xFF2
  3137                           postinc0	equ	0xFEE
  3138                           fsr0h	equ	0xFEA
  3139                           fsr0l	equ	0xFE9
  3140                           wreg	equ	0xFE8
  3141                           indf1	equ	0xFE7
  3142                           fsr1h	equ	0xFE2
  3143                           fsr1l	equ	0xFE1
  3144                           bsr	equ	0xFE0
  3145                           indf2	equ	0xFDF
  3146                           fsr2h	equ	0xFDA
  3147                           fsr2l	equ	0xFD9
  3148                           status	equ	0xFD8
  3149                           
  3150 ;; *************** function _timer1_int_handler *****************
  3151 ;; Defined at:
  3152 ;;		line 42 in file "../src/user_interrupts.c"
  3153 ;; Parameters:    Size  Location     Type
  3154 ;;		None
  3155 ;; Auto vars:     Size  Location     Type
  3156 ;;  result          2   27[COMRAM] unsigned int 
  3157 ;; Return value:  Size  Location     Type
  3158 ;;		None               void
  3159 ;; Registers used:
  3160 ;;		wreg, fsr1l, fsr1h, fsr2l, fsr2h, status,2, status,0, prodl, prodh, cstack
  3161 ;; Tracked objects:
  3162 ;;		On entry : 0/0
  3163 ;;		On exit  : 0/0
  3164 ;;		Unchanged: 0/0
  3165 ;; Data sizes:     COMRAM   BANK0   BANK1   BANK2   BANK3
  3166 ;;      Params:         0       0       0       0       0
  3167 ;;      Locals:         2       0       0       0       0
  3168 ;;      Temps:          1       0       0       0       0
  3169 ;;      Totals:         3       0       0       0       0
  3170 ;;Total ram usage:        3 bytes
  3171 ;; Hardware stack levels used:    1
  3172 ;; Hardware stack levels required when called:    8
  3173 ;; This function calls:
  3174 ;;		_ReadTimer1
  3175 ;;		_ToMainLow_sendmsg
  3176 ;;		_WriteTimer1
  3177 ;; This function is called by:
  3178 ;;		_InterruptHandlerLow
  3179 ;; This function uses a non-reentrant model
  3180 ;;
  3181                           
  3182                           	psect	text21
  3183  001246                     __ptext21:
  3184                           	opt stack 0
  3185  001246                     _timer1_int_handler:
  3186                           	opt stack 17
  3187                           
  3188                           ;user_interrupts.c: 43: unsigned int result;
  3189                           ;user_interrupts.c: 50: result = ReadTimer1();
  3190                           
  3191                           ;incstack = 0
  3192  001246  ECF0  F009         	call	_ReadTimer1	;wreg free
  3193  00124A  C001  F01C         	movff	?_ReadTimer1,timer1_int_handler@result
  3194  00124E  C002  F01D         	movff	?_ReadTimer1+1,timer1_int_handler@result+1
  3195                           
  3196                           ;user_interrupts.c: 51: ToMainLow_sendmsg(0, 11, (void *) 0);
  3197  001252  6E1B               	movwf	??_timer1_int_handler& (0+255),c
  3198  001254  0E0B               	movlw	11
  3199  001256  6E17               	movwf	ToMainLow_sendmsg@msgtype,c
  3200  001258  501B               	movf	??_timer1_int_handler& (0+255),w,c
  3201  00125A  0E00               	movlw	0
  3202  00125C  6E19               	movwf	ToMainLow_sendmsg@data+1,c
  3203  00125E  0E00               	movlw	0
  3204  001260  6E18               	movwf	ToMainLow_sendmsg@data,c
  3205  001262  0E00               	movlw	0
  3206  001264  EC90  F009         	call	_ToMainLow_sendmsg
  3207                           
  3208                           ;user_interrupts.c: 54: WriteTimer1(0);
  3209  001268  0E00               	movlw	0
  3210  00126A  6E02               	movwf	WriteTimer1@timer1+1,c
  3211  00126C  0E00               	movlw	0
  3212  00126E  6E01               	movwf	WriteTimer1@timer1,c
  3213  001270  ECE7  F009         	call	_WriteTimer1	;wreg free
  3214  001274  0012               	return	
  3215  001276                     __end_of_timer1_int_handler:
  3216                           	opt stack 0
  3217                           pclatu	equ	0xFFB
  3218                           pclath	equ	0xFFA
  3219                           tblptru	equ	0xFF8
  3220                           tblptrh	equ	0xFF7
  3221                           tblptrl	equ	0xFF6
  3222                           tablat	equ	0xFF5
  3223                           prodh	equ	0xFF4
  3224                           prodl	equ	0xFF3
  3225                           intcon	equ	0xFF2
  3226                           postinc0	equ	0xFEE
  3227                           fsr0h	equ	0xFEA
  3228                           fsr0l	equ	0xFE9
  3229                           wreg	equ	0xFE8
  3230                           indf1	equ	0xFE7
  3231                           fsr1h	equ	0xFE2
  3232                           fsr1l	equ	0xFE1
  3233                           bsr	equ	0xFE0
  3234                           indf2	equ	0xFDF
  3235                           fsr2h	equ	0xFDA
  3236                           fsr2l	equ	0xFD9
  3237                           status	equ	0xFD8
  3238                           
  3239 ;; *************** function _WriteTimer1 *****************
  3240 ;; Defined at:
  3241 ;;		line 14 in file "/Applications/microchip/xc8/v1.30/sources/pic18/plib/Timers/t1write.c"
  3242 ;; Parameters:    Size  Location     Type
  3243 ;;  timer1          2    0[COMRAM] unsigned int 
  3244 ;; Auto vars:     Size  Location     Type
  3245 ;;  timer           2    2[COMRAM] struct Timers
  3246 ;; Return value:  Size  Location     Type
  3247 ;;		None               void
  3248 ;; Registers used:
  3249 ;;		None
  3250 ;; Tracked objects:
  3251 ;;		On entry : 0/0
  3252 ;;		On exit  : 0/0
  3253 ;;		Unchanged: 0/0
  3254 ;; Data sizes:     COMRAM   BANK0   BANK1   BANK2   BANK3
  3255 ;;      Params:         2       0       0       0       0
  3256 ;;      Locals:         2       0       0       0       0
  3257 ;;      Temps:          0       0       0       0       0
  3258 ;;      Totals:         4       0       0       0       0
  3259 ;;Total ram usage:        4 bytes
  3260 ;; Hardware stack levels used:    1
  3261 ;; Hardware stack levels required when called:    5
  3262 ;; This function calls:
  3263 ;;		Nothing
  3264 ;; This function is called by:
  3265 ;;		_timer1_int_handler
  3266 ;; This function uses a non-reentrant model
  3267 ;;
  3268                           
  3269                           	psect	text22
  3270  0013CE                     __ptext22:
  3271                           	opt stack 0
  3272  0013CE                     _WriteTimer1:
  3273                           	opt stack 19
  3274                           
  3275                           ;incstack = 0
  3276  0013CE  C001  F003         	movff	WriteTimer1@timer1,WriteTimer1@timer
  3277  0013D2  C002  F004         	movff	WriteTimer1@timer1+1,WriteTimer1@timer+1
  3278  0013D6  C004  FFCF         	movff	WriteTimer1@timer+1,4047	;volatile
  3279  0013DA  C003  FFCE         	movff	WriteTimer1@timer,4046	;volatile
  3280  0013DE  0012               	return	
  3281  0013E0                     __end_of_WriteTimer1:
  3282                           	opt stack 0
  3283                           pclatu	equ	0xFFB
  3284                           pclath	equ	0xFFA
  3285                           tblptru	equ	0xFF8
  3286                           tblptrh	equ	0xFF7
  3287                           tblptrl	equ	0xFF6
  3288                           tablat	equ	0xFF5
  3289                           prodh	equ	0xFF4
  3290                           prodl	equ	0xFF3
  3291                           intcon	equ	0xFF2
  3292                           postinc0	equ	0xFEE
  3293                           fsr0h	equ	0xFEA
  3294                           fsr0l	equ	0xFE9
  3295                           wreg	equ	0xFE8
  3296                           indf1	equ	0xFE7
  3297                           fsr1h	equ	0xFE2
  3298                           fsr1l	equ	0xFE1
  3299                           bsr	equ	0xFE0
  3300                           indf2	equ	0xFDF
  3301                           fsr2h	equ	0xFDA
  3302                           fsr2l	equ	0xFD9
  3303                           status	equ	0xFD8
  3304                           
  3305 ;; *************** function _ToMainLow_sendmsg *****************
  3306 ;; Defined at:
  3307 ;;		line 103 in file "../src/messages.c"
  3308 ;; Parameters:    Size  Location     Type
  3309 ;;  length          1    wreg     unsigned char 
  3310 ;;  msgtype         1   22[COMRAM] unsigned char 
  3311 ;;  data            2   23[COMRAM] PTR void 
  3312 ;;		 -> timer0_lthread@val(2), NULL(0), main@uc(5), 
  3313 ;; Auto vars:     Size  Location     Type
  3314 ;;  length          1   25[COMRAM] unsigned char 
  3315 ;; Return value:  Size  Location     Type
  3316 ;;                  1    wreg      char 
  3317 ;; Registers used:
  3318 ;;		wreg, fsr1l, fsr1h, fsr2l, fsr2h, status,2, status,0, prodl, prodh, cstack
  3319 ;; Tracked objects:
  3320 ;;		On entry : 0/0
  3321 ;;		On exit  : 0/0
  3322 ;;		Unchanged: 0/0
  3323 ;; Data sizes:     COMRAM   BANK0   BANK1   BANK2   BANK3
  3324 ;;      Params:         3       0       0       0       0
  3325 ;;      Locals:         1       0       0       0       0
  3326 ;;      Temps:          0       0       0       0       0
  3327 ;;      Totals:         4       0       0       0       0
  3328 ;;Total ram usage:        4 bytes
  3329 ;; Hardware stack levels used:    1
  3330 ;; Hardware stack levels required when called:    7
  3331 ;; This function calls:
  3332 ;;		_send_msg
  3333 ;; This function is called by:
  3334 ;;		_uart_recv_int_handler
  3335 ;;		_timer1_int_handler
  3336 ;;		_timer0_lthread
  3337 ;; This function uses a non-reentrant model
  3338 ;;
  3339                           
  3340                           	psect	text23
  3341  001320                     __ptext23:
  3342                           	opt stack 0
  3343  001320                     _ToMainLow_sendmsg:
  3344                           	opt stack 17
  3345                           
  3346                           ;incstack = 0
  3347                           ;ToMainLow_sendmsg@length stored from wreg
  3348  001320  CFE8 F01A          	movff	wreg,ToMainLow_sendmsg@length
  3349                           
  3350                           ;messages.c: 109: return (send_msg(&ToMainLow_MQ, length, msgtype, data));
  3351                           ;	Return value of _ToMainLow_sendmsg is never used
  3352  001324  0100               	movlb	0	; () banked
  3353  001326  0E00               	movlw	high _ToMainLow_MQ
  3354  001328  6E0C               	movwf	send_msg@qptr+1,c
  3355  00132A  0100               	movlb	0	; () banked
  3356  00132C  0E80               	movlw	low _ToMainLow_MQ
  3357  00132E  6E0B               	movwf	send_msg@qptr,c
  3358  001330  C01A  F00D         	movff	ToMainLow_sendmsg@length,send_msg@length
  3359  001334  C017  F00E         	movff	ToMainLow_sendmsg@msgtype,send_msg@msgtype
  3360  001338  C019  F010         	movff	ToMainLow_sendmsg@data+1,send_msg@data+1
  3361  00133C  C018  F00F         	movff	ToMainLow_sendmsg@data,send_msg@data
  3362  001340  EC7A  F005         	call	_send_msg	;wreg free
  3363  001344  0012               	return	
  3364  001346                     __end_of_ToMainLow_sendmsg:
  3365                           	opt stack 0
  3366                           pclatu	equ	0xFFB
  3367                           pclath	equ	0xFFA
  3368                           tblptru	equ	0xFF8
  3369                           tblptrh	equ	0xFF7
  3370                           tblptrl	equ	0xFF6
  3371                           tablat	equ	0xFF5
  3372                           prodh	equ	0xFF4
  3373                           prodl	equ	0xFF3
  3374                           intcon	equ	0xFF2
  3375                           postinc0	equ	0xFEE
  3376                           fsr0h	equ	0xFEA
  3377                           fsr0l	equ	0xFE9
  3378                           wreg	equ	0xFE8
  3379                           indf1	equ	0xFE7
  3380                           fsr1h	equ	0xFE2
  3381                           fsr1l	equ	0xFE1
  3382                           bsr	equ	0xFE0
  3383                           indf2	equ	0xFDF
  3384                           fsr2h	equ	0xFDA
  3385                           fsr2l	equ	0xFD9
  3386                           status	equ	0xFD8
  3387                           
  3388 ;; *************** function _send_msg *****************
  3389 ;; Defined at:
  3390 ;;		line 24 in file "../src/messages.c"
  3391 ;; Parameters:    Size  Location     Type
  3392 ;;  qptr            2   10[COMRAM] PTR struct __msg_queue
  3393 ;;		 -> FromMainHigh_MQ(54), FromMainLow_MQ(54), ToMainHigh_MQ(54), ToMainLow_MQ(54), 
  3394 ;;  length          1   12[COMRAM] unsigned char 
  3395 ;;  msgtype         1   13[COMRAM] unsigned char 
  3396 ;;  data            2   14[COMRAM] PTR void 
  3397 ;;		 -> timer0_lthread@val(2), NULL(0), i2c_int_handler@error_buf(3), main@ic(40), 
  3398 ;;		 -> main@uc(5), 
  3399 ;; Auto vars:     Size  Location     Type
  3400 ;;  qmsg            2   20[COMRAM] PTR struct __msg
  3401 ;;		 -> FromMainLow_MQ.queue(52), FromMainHigh_MQ.queue(52), ToMainHigh_MQ.queue(52), ToMainLow_MQ.queue(52), 
  3402 ;;		 -> FromMainHigh_MQ(54), FromMainLow_MQ(54), ToMainHigh_MQ(54), ToMainLow_MQ(54), 
  3403 ;;  tlength         2   17[COMRAM] unsigned int 
  3404 ;;  slot            1   19[COMRAM] unsigned char 
  3405 ;; Return value:  Size  Location     Type
  3406 ;;                  1    wreg      char 
  3407 ;; Registers used:
  3408 ;;		wreg, fsr1l, fsr1h, fsr2l, fsr2h, status,2, status,0, prodl, prodh, cstack
  3409 ;; Tracked objects:
  3410 ;;		On entry : 0/0
  3411 ;;		On exit  : 0/0
  3412 ;;		Unchanged: 0/0
  3413 ;; Data sizes:     COMRAM   BANK0   BANK1   BANK2   BANK3
  3414 ;;      Params:         6       0       0       0       0
  3415 ;;      Locals:         5       0       0       0       0
  3416 ;;      Temps:          1       0       0       0       0
  3417 ;;      Totals:        12       0       0       0       0
  3418 ;;Total ram usage:       12 bytes
  3419 ;; Hardware stack levels used:    1
  3420 ;; Hardware stack levels required when called:    6
  3421 ;; This function calls:
  3422 ;;		i1_memcpy
  3423 ;; This function is called by:
  3424 ;;		_ToMainLow_sendmsg
  3425 ;;		_FromMainLow_sendmsg
  3426 ;;		_FromMainHigh_sendmsg
  3427 ;; This function uses a non-reentrant model
  3428 ;;
  3429                           
  3430                           	psect	text24
  3431  000AF4                     __ptext24:
  3432                           	opt stack 0
  3433  000AF4                     _send_msg:
  3434                           	opt stack 17
  3435                           
  3436                           ;messages.c: 25: unsigned char slot;
  3437                           ;messages.c: 27: msg *qmsg;
  3438                           ;messages.c: 28: size_t tlength = length;
  3439                           
  3440                           ;incstack = 0
  3441  000AF4  C00D  F012         	movff	send_msg@length,send_msg@tlength
  3442  000AF8  6A13               	clrf	send_msg@tlength+1,c
  3443                           
  3444                           ;messages.c: 38: slot = qptr->cur_write_ind;
  3445  000AFA  EE20 F034          	lfsr	2,52
  3446  000AFE  500B               	movf	send_msg@qptr,w,c
  3447  000B00  26D9               	addwf	fsr2l,f,c
  3448  000B02  500C               	movf	send_msg@qptr+1,w,c
  3449  000B04  22DA               	addwfc	fsr2h,f,c
  3450  000B06  50DF               	movf	indf2,w,c
  3451  000B08  6E14               	movwf	send_msg@slot,c
  3452                           
  3453                           ;messages.c: 39: qmsg = &(qptr->queue[slot]);
  3454  000B0A  5014               	movf	send_msg@slot,w,c
  3455  000B0C  0D0D               	mullw	13
  3456  000B0E  50F3               	movf	prodl,w,c
  3457  000B10  240B               	addwf	send_msg@qptr,w,c
  3458  000B12  6E15               	movwf	send_msg@qmsg,c
  3459  000B14  50F4               	movf	prodh,w,c
  3460  000B16  200C               	addwfc	send_msg@qptr+1,w,c
  3461  000B18  6E16               	movwf	send_msg@qmsg+1,c
  3462                           
  3463                           ;messages.c: 41: if (qmsg->full != 0) {
  3464  000B1A  C015  FFD9         	movff	send_msg@qmsg,fsr2l
  3465  000B1E  C016  FFDA         	movff	send_msg@qmsg+1,fsr2h
  3466  000B22  50DF               	movf	indf2,w,c
  3467  000B24  B4D8               	btfsc	status,2,c
  3468  000B26  D002               	goto	i1l2499
  3469                           
  3470                           ;messages.c: 42: return (-1);
  3471  000B28  0EFF               	movlw	255
  3472  000B2A  0012               	return	
  3473  000B2C                     i1l2499:
  3474                           
  3475                           ;messages.c: 43: }
  3476                           ;messages.c: 46: qmsg->length = length;
  3477  000B2C  EE20 F001          	lfsr	2,1
  3478  000B30  5015               	movf	send_msg@qmsg,w,c
  3479  000B32  26D9               	addwf	fsr2l,f,c
  3480  000B34  5016               	movf	send_msg@qmsg+1,w,c
  3481  000B36  22DA               	addwfc	fsr2h,f,c
  3482  000B38  C00D  FFDF         	movff	send_msg@length,indf2
  3483                           
  3484                           ;messages.c: 47: qmsg->msgtype = msgtype;
  3485  000B3C  EE20 F002          	lfsr	2,2
  3486  000B40  5015               	movf	send_msg@qmsg,w,c
  3487  000B42  26D9               	addwf	fsr2l,f,c
  3488  000B44  5016               	movf	send_msg@qmsg+1,w,c
  3489  000B46  22DA               	addwfc	fsr2h,f,c
  3490  000B48  C00E  FFDF         	movff	send_msg@msgtype,indf2
  3491                           
  3492                           ;messages.c: 55: memcpy(qmsg->data, data, tlength);
  3493  000B4C  0E03               	movlw	3
  3494  000B4E  2415               	addwf	send_msg@qmsg,w,c
  3495  000B50  6E01               	movwf	i1memcpy@d1,c
  3496  000B52  0E00               	movlw	0
  3497  000B54  2016               	addwfc	send_msg@qmsg+1,w,c
  3498  000B56  6E02               	movwf	i1memcpy@d1+1,c
  3499  000B58  C010  F004         	movff	send_msg@data+1,i1memcpy@s1+1
  3500  000B5C  C00F  F003         	movff	send_msg@data,i1memcpy@s1
  3501  000B60  C012  F005         	movff	send_msg@tlength,i1memcpy@n
  3502  000B64  C013  F006         	movff	send_msg@tlength+1,i1memcpy@n+1
  3503  000B68  ECAC  F008         	call	i1_memcpy	;wreg free
  3504                           
  3505                           ;messages.c: 56: qptr->cur_write_ind = (qptr->cur_write_ind + 1) % 4;
  3506  000B6C  EE20 F034          	lfsr	2,52
  3507  000B70  500B               	movf	send_msg@qptr,w,c
  3508  000B72  26D9               	addwf	fsr2l,f,c
  3509  000B74  500C               	movf	send_msg@qptr+1,w,c
  3510  000B76  22DA               	addwfc	fsr2h,f,c
  3511  000B78  EE10 F034          	lfsr	1,52
  3512  000B7C  500B               	movf	send_msg@qptr,w,c
  3513  000B7E  26E1               	addwf	fsr1l,f,c
  3514  000B80  500C               	movf	send_msg@qptr+1,w,c
  3515  000B82  22E2               	addwfc	fsr1h,f,c
  3516  000B84  50E7               	movf	indf1,w,c
  3517  000B86  6E11               	movwf	??_send_msg& (0+255),c
  3518  000B88  2811               	incf	??_send_msg,w,c
  3519  000B8A  0B03               	andlw	3
  3520  000B8C  6EDF               	movwf	indf2,c
  3521                           
  3522                           ;messages.c: 59: qmsg->full = 1;
  3523  000B8E  C015  FFD9         	movff	send_msg@qmsg,fsr2l
  3524  000B92  C016  FFDA         	movff	send_msg@qmsg+1,fsr2h
  3525  000B96  0E01               	movlw	1
  3526  000B98  6EDF               	movwf	indf2,c
  3527                           
  3528                           ;messages.c: 60: return (1);
  3529  000B9A  0E01               	movlw	1
  3530  000B9C  0012               	return	
  3531  000B9E                     __end_of_send_msg:
  3532                           	opt stack 0
  3533                           pclatu	equ	0xFFB
  3534                           pclath	equ	0xFFA
  3535                           tblptru	equ	0xFF8
  3536                           tblptrh	equ	0xFF7
  3537                           tblptrl	equ	0xFF6
  3538                           tablat	equ	0xFF5
  3539                           prodh	equ	0xFF4
  3540                           prodl	equ	0xFF3
  3541                           intcon	equ	0xFF2
  3542                           postinc0	equ	0xFEE
  3543                           fsr0h	equ	0xFEA
  3544                           fsr0l	equ	0xFE9
  3545                           wreg	equ	0xFE8
  3546                           indf1	equ	0xFE7
  3547                           fsr1h	equ	0xFE2
  3548                           fsr1l	equ	0xFE1
  3549                           bsr	equ	0xFE0
  3550                           indf2	equ	0xFDF
  3551                           fsr2h	equ	0xFDA
  3552                           fsr2l	equ	0xFD9
  3553                           status	equ	0xFD8
  3554                           
  3555 ;; *************** function i1_memcpy *****************
  3556 ;; Defined at:
  3557 ;;		line 11 in file "/Applications/microchip/xc8/v1.30/sources/common/memcpy.c"
  3558 ;; Parameters:    Size  Location     Type
  3559 ;;  d1              2    0[COMRAM] PTR void 
  3560 ;;		 -> FromMainLow_MQ.queue(52), FromMainHigh_MQ.queue(52), ToMainHigh_MQ.queue(52), ToMainLow_MQ.queue(52), 
  3561 ;;		 -> FromMainHigh_MQ(54), FromMainLow_MQ(54), ToMainHigh_MQ(54), ToMainLow_MQ(54), 
  3562 ;;		 -> main@msgbuffer(11), 
  3563 ;;  s1              2    2[COMRAM] PTR const void 
  3564 ;;		 -> ToMainLow_MQ.data(10), ToMainHigh_MQ.data(10), FromMainLow_MQ.data(10), FromMainHigh_MQ.data(10), 
  3565 ;;		 -> ToMainLow_MQ.queue.data(10), ToMainHigh_MQ.queue.data(10), FromMainHigh_MQ.queue.data(10), FromMainLow_MQ.queue.
      +data(10), 
  3566 ;;		 -> timer0_lthread@val(2), NULL(0), i2c_int_handler@error_buf(3), FromMainHigh_MQ(54), 
  3567 ;;		 -> FromMainLow_MQ(54), ToMainHigh_MQ(54), ToMainLow_MQ(54), main@ic(40), 
  3568 ;;		 -> main@uc(5), 
  3569 ;;  n               2    4[COMRAM] unsigned int 
  3570 ;; Auto vars:     Size  Location     Type
  3571 ;;  memcpy          2    8[COMRAM] PTR const unsigned char 
  3572 ;;		 -> ToMainLow_MQ.data(10), ToMainHigh_MQ.data(10), FromMainLow_MQ.data(10), FromMainHigh_MQ.data(10), 
  3573 ;;		 -> ToMainLow_MQ.queue.data(10), ToMainHigh_MQ.queue.data(10), FromMainHigh_MQ.queue.data(10), FromMainLow_MQ.queue.
      +data(10), 
  3574 ;;		 -> timer0_lthread@val(2), NULL(0), i2c_int_handler@error_buf(3), FromMainHigh_MQ(54), 
  3575 ;;		 -> FromMainLow_MQ(54), ToMainHigh_MQ(54), ToMainLow_MQ(54), main@ic(40), 
  3576 ;;		 -> main@uc(5), 
  3577 ;;  memcpy          2    6[COMRAM] PTR unsigned char 
  3578 ;;		 -> FromMainLow_MQ.queue(52), FromMainHigh_MQ.queue(52), ToMainHigh_MQ.queue(52), ToMainLow_MQ.queue(52), 
  3579 ;;		 -> FromMainHigh_MQ(54), FromMainLow_MQ(54), ToMainHigh_MQ(54), ToMainLow_MQ(54), 
  3580 ;;		 -> main@msgbuffer(11), 
  3581 ;; Return value:  Size  Location     Type
  3582 ;;                  2    0[COMRAM] PTR void 
  3583 ;; Registers used:
  3584 ;;		wreg, fsr1l, fsr1h, fsr2l, fsr2h, status,2, status,0
  3585 ;; Tracked objects:
  3586 ;;		On entry : 0/0
  3587 ;;		On exit  : 0/0
  3588 ;;		Unchanged: 0/0
  3589 ;; Data sizes:     COMRAM   BANK0   BANK1   BANK2   BANK3
  3590 ;;      Params:         6       0       0       0       0
  3591 ;;      Locals:         4       0       0       0       0
  3592 ;;      Temps:          0       0       0       0       0
  3593 ;;      Totals:        10       0       0       0       0
  3594 ;;Total ram usage:       10 bytes
  3595 ;; Hardware stack levels used:    1
  3596 ;; Hardware stack levels required when called:    5
  3597 ;; This function calls:
  3598 ;;		Nothing
  3599 ;; This function is called by:
  3600 ;;		_send_msg
  3601 ;; This function uses a non-reentrant model
  3602 ;;
  3603                           
  3604                           	psect	text25
  3605  001158                     __ptext25:
  3606                           	opt stack 0
  3607  001158                     i1_memcpy:
  3608                           	opt stack 17
  3609                           
  3610                           ;incstack = 0
  3611  001158  C004  F00A         	movff	i1memcpy@s1+1,i1memcpy@s+1
  3612  00115C  C003  F009         	movff	i1memcpy@s1,i1memcpy@s
  3613  001160  C002  F008         	movff	i1memcpy@d1+1,i1memcpy@d+1
  3614  001164  C001  F007         	movff	i1memcpy@d1,i1memcpy@d
  3615  001168  D00E               	goto	i1l2475
  3616  00116A                     i1l2469:
  3617  00116A  C009  FFD9         	movff	i1memcpy@s,fsr2l
  3618  00116E  C00A  FFDA         	movff	i1memcpy@s+1,fsr2h
  3619  001172  C007  FFE1         	movff	i1memcpy@d,fsr1l
  3620  001176  C008  FFE2         	movff	i1memcpy@d+1,fsr1h
  3621  00117A  CFDF FFE7          	movff	indf2,indf1
  3622  00117E  4A09               	infsnz	i1memcpy@s,f,c
  3623  001180  2A0A               	incf	i1memcpy@s+1,f,c
  3624  001182  4A07               	infsnz	i1memcpy@d,f,c
  3625  001184  2A08               	incf	i1memcpy@d+1,f,c
  3626  001186                     i1l2475:
  3627  001186  0605               	decf	i1memcpy@n,f,c
  3628  001188  A0D8               	btfss	status,0,c
  3629  00118A  0606               	decf	i1memcpy@n+1,f,c
  3630  00118C  2805               	incf	i1memcpy@n& (0+255),w,c
  3631  00118E  B4D8               	btfsc	status,2,c
  3632  001190  2806               	incf	(i1memcpy@n+1)& (0+255),w,c
  3633  001192  B4D8               	btfsc	status,2,c
  3634                           
  3635                           ;	Return value of i1_memcpy is never used
  3636  001194  0012               	return	
  3637  001196  D7E9               	goto	i1l2469
  3638  001198                     __end_ofi1_memcpy:
  3639                           	opt stack 0
  3640                           pclatu	equ	0xFFB
  3641                           pclath	equ	0xFFA
  3642                           tblptru	equ	0xFF8
  3643                           tblptrh	equ	0xFF7
  3644                           tblptrl	equ	0xFF6
  3645                           tablat	equ	0xFF5
  3646                           prodh	equ	0xFF4
  3647                           prodl	equ	0xFF3
  3648                           intcon	equ	0xFF2
  3649                           postinc0	equ	0xFEE
  3650                           fsr0h	equ	0xFEA
  3651                           fsr0l	equ	0xFE9
  3652                           wreg	equ	0xFE8
  3653                           indf1	equ	0xFE7
  3654                           fsr1h	equ	0xFE2
  3655                           fsr1l	equ	0xFE1
  3656                           bsr	equ	0xFE0
  3657                           indf2	equ	0xFDF
  3658                           fsr2h	equ	0xFDA
  3659                           fsr2l	equ	0xFD9
  3660                           status	equ	0xFD8
  3661                           
  3662 ;; *************** function _ReadTimer1 *****************
  3663 ;; Defined at:
  3664 ;;		line 15 in file "/Applications/microchip/xc8/v1.30/sources/pic18/plib/Timers/t1read.c"
  3665 ;; Parameters:    Size  Location     Type
  3666 ;;		None
  3667 ;; Auto vars:     Size  Location     Type
  3668 ;;  timer           2    2[COMRAM] struct Timers
  3669 ;; Return value:  Size  Location     Type
  3670 ;;                  2    0[COMRAM] unsigned int 
  3671 ;; Registers used:
  3672 ;;		None
  3673 ;; Tracked objects:
  3674 ;;		On entry : 0/0
  3675 ;;		On exit  : 0/0
  3676 ;;		Unchanged: 0/0
  3677 ;; Data sizes:     COMRAM   BANK0   BANK1   BANK2   BANK3
  3678 ;;      Params:         2       0       0       0       0
  3679 ;;      Locals:         2       0       0       0       0
  3680 ;;      Temps:          0       0       0       0       0
  3681 ;;      Totals:         4       0       0       0       0
  3682 ;;Total ram usage:        4 bytes
  3683 ;; Hardware stack levels used:    1
  3684 ;; Hardware stack levels required when called:    5
  3685 ;; This function calls:
  3686 ;;		Nothing
  3687 ;; This function is called by:
  3688 ;;		_timer1_int_handler
  3689 ;; This function uses a non-reentrant model
  3690 ;;
  3691                           
  3692                           	psect	text26
  3693  0013E0                     __ptext26:
  3694                           	opt stack 0
  3695  0013E0                     _ReadTimer1:
  3696                           	opt stack 19
  3697                           
  3698                           ;incstack = 0
  3699  0013E0  CFCE F003          	movff	4046,ReadTimer1@timer	;volatile
  3700  0013E4  CFCF F004          	movff	4047,ReadTimer1@timer+1	;volatile
  3701  0013E8  C003  F001         	movff	ReadTimer1@timer,?_ReadTimer1
  3702  0013EC  C004  F002         	movff	ReadTimer1@timer+1,?_ReadTimer1+1
  3703  0013F0  0012               	return	
  3704  0013F2                     __end_of_ReadTimer1:
  3705                           	opt stack 0
  3706                           pclatu	equ	0xFFB
  3707                           pclath	equ	0xFFA
  3708                           tblptru	equ	0xFF8
  3709                           tblptrh	equ	0xFF7
  3710                           tblptrl	equ	0xFF6
  3711                           tablat	equ	0xFF5
  3712                           prodh	equ	0xFF4
  3713                           prodl	equ	0xFF3
  3714                           intcon	equ	0xFF2
  3715                           postinc0	equ	0xFEE
  3716                           fsr0h	equ	0xFEA
  3717                           fsr0l	equ	0xFE9
  3718                           wreg	equ	0xFE8
  3719                           indf1	equ	0xFE7
  3720                           fsr1h	equ	0xFE2
  3721                           fsr1l	equ	0xFE1
  3722                           bsr	equ	0xFE0
  3723                           indf2	equ	0xFDF
  3724                           fsr2h	equ	0xFDA
  3725                           fsr2l	equ	0xFD9
  3726                           status	equ	0xFD8
  3727                           
  3728 ;; *************** function _InterruptHandlerHigh *****************
  3729 ;; Defined at:
  3730 ;;		line 84 in file "../src/interrupts.c"
  3731 ;; Parameters:    Size  Location     Type
  3732 ;;		None
  3733 ;; Auto vars:     Size  Location     Type
  3734 ;;		None
  3735 ;; Return value:  Size  Location     Type
  3736 ;;		None               void
  3737 ;; Registers used:
  3738 ;;		wreg, fsr0l, fsr0h, fsr1l, fsr1h, fsr1l, fsr1h, fsr2l, fsr2h, status,2, status,0, pclat, btemp, btemp+1, btemp+2, bt
      +emp+3, btemp+4, btemp+5, btemp+6, btemp+7, btemp+8, btemp+9, btemp+10, btemp+11, tosl, structret, tblptrl, tblptrh, tblp
      +tru, prodl, prodh, bsr, cstack
  3739 ;; Tracked objects:
  3740 ;;		On entry : 0/0
  3741 ;;		On exit  : 0/0
  3742 ;;		Unchanged: 0/0
  3743 ;; Data sizes:     COMRAM   BANK0   BANK1   BANK2   BANK3
  3744 ;;      Params:         0       0       0       0       0
  3745 ;;      Locals:         0       0       0       0       0
  3746 ;;      Temps:          0      15       0       0       0
  3747 ;;      Totals:         0      15       0       0       0
  3748 ;;Total ram usage:       15 bytes
  3749 ;; Hardware stack levels used:    1
  3750 ;; Hardware stack levels required when called:    4
  3751 ;; This function calls:
  3752 ;;		_SleepIfOkay
  3753 ;;		_adc_int_handler
  3754 ;;		_i2c_int_handler
  3755 ;;		_timer0_int_handler
  3756 ;; This function is called by:
  3757 ;;		Interrupt level 2
  3758 ;; This function uses a non-reentrant model
  3759 ;;
  3760                           
  3761                           	psect	intcode
  3762  000008                     __pintcode:
  3763                           	opt stack 0
  3764  000008                     _InterruptHandlerHigh:
  3765                           	opt stack 17
  3766                           
  3767                           ;incstack = 0
  3768  000008  CFFA F0CB          	movff	pclath,??_InterruptHandlerHigh+1
  3769  00000C  CFFB F0CC          	movff	pclatu,??_InterruptHandlerHigh+2
  3770  000010  EF18  F005         	goto	int_func
  3771                           pclatu	equ	0xFFB
  3772                           pclath	equ	0xFFA
  3773                           tblptru	equ	0xFF8
  3774                           tblptrh	equ	0xFF7
  3775                           tblptrl	equ	0xFF6
  3776                           tablat	equ	0xFF5
  3777                           prodh	equ	0xFF4
  3778                           prodl	equ	0xFF3
  3779                           intcon	equ	0xFF2
  3780                           postinc0	equ	0xFEE
  3781                           fsr0h	equ	0xFEA
  3782                           fsr0l	equ	0xFE9
  3783                           wreg	equ	0xFE8
  3784                           indf1	equ	0xFE7
  3785                           fsr1h	equ	0xFE2
  3786                           fsr1l	equ	0xFE1
  3787                           bsr	equ	0xFE0
  3788                           indf2	equ	0xFDF
  3789                           fsr2h	equ	0xFDA
  3790                           fsr2l	equ	0xFD9
  3791                           status	equ	0xFD8
  3792                           
  3793                           	psect	intcode_body
  3794  000A30                     __pintcode_body:
  3795                           	opt stack 17
  3796  000A30                     int_func:
  3797                           	opt stack 17
  3798  000A30  CFE9 F0CD          	movff	fsr0l,??_InterruptHandlerHigh+3
  3799  000A34  CFEA F0CE          	movff	fsr0h,??_InterruptHandlerHigh+4
  3800  000A38  CFE1 F0CF          	movff	fsr1l,??_InterruptHandlerHigh+5
  3801  000A3C  CFE2 F0D0          	movff	fsr1h,??_InterruptHandlerHigh+6
  3802  000A40  CFD9 F0D1          	movff	fsr2l,??_InterruptHandlerHigh+7
  3803  000A44  CFDA F0D2          	movff	fsr2h,??_InterruptHandlerHigh+8
  3804  000A48  CFF3 F0D3          	movff	prodl,??_InterruptHandlerHigh+9
  3805  000A4C  CFF4 F0D4          	movff	prodh,??_InterruptHandlerHigh+10
  3806  000A50  CFF6 F0D5          	movff	tblptrl,??_InterruptHandlerHigh+11
  3807  000A54  CFF7 F0D6          	movff	tblptrh,??_InterruptHandlerHigh+12
  3808  000A58  CFF8 F0D7          	movff	tblptru,??_InterruptHandlerHigh+13
  3809  000A5C  CFF5 F0D8          	movff	tablat,??_InterruptHandlerHigh+14
  3810                           
  3811                           ;interrupts.c: 89: if (PIR1bits.SSPIF) {
  3812  000A60  A69E               	btfss	3998,3,c	;volatile
  3813  000A62  D003               	goto	i2l2571
  3814                           
  3815                           ;interrupts.c: 91: PIR1bits.SSPIF = 0;
  3816  000A64  969E               	bcf	3998,3,c	;volatile
  3817                           
  3818                           ;interrupts.c: 93: i2c_int_handler();
  3819  000A66  EC5D  F000         	call	_i2c_int_handler	;wreg free
  3820  000A6A                     i2l2571:
  3821                           
  3822                           ;interrupts.c: 94: }
  3823                           ;interrupts.c: 95: if(PIR1bits.ADIF)
  3824  000A6A  AC9E               	btfss	3998,6,c	;volatile
  3825  000A6C  D012               	goto	i2l2579
  3826                           
  3827                           ;interrupts.c: 96: {
  3828                           ;interrupts.c: 97: LATBbits.LATB1 = !LATBbits.LATB1;
  3829  000A6E  B28A               	btfsc	3978,1,c	;volatile
  3830  000A70  D002               	goto	i2u158_40
  3831  000A72  0E01               	movlw	1
  3832  000A74  D001               	goto	i2u158_46
  3833  000A76                     i2u158_40:
  3834  000A76  0E00               	movlw	0
  3835  000A78                     i2u158_46:
  3836  000A78  0100               	movlb	0	; () banked
  3837  000A7A  6FCA               	movwf	??_InterruptHandlerHigh& (0+255),b
  3838  000A7C  0100               	movlb	0	; () banked
  3839  000A7E  47CA               	rlncf	??_InterruptHandlerHigh& (0+255),f,b
  3840  000A80  508A               	movf	3978,w,c	;volatile
  3841  000A82  0100               	movlb	0	; () banked
  3842  000A84  19CA               	xorwf	??_InterruptHandlerHigh& (0+255),w,b
  3843  000A86  0BFD               	andlw	-3
  3844  000A88  19CA               	xorwf	??_InterruptHandlerHigh& (0+255),w,b
  3845  000A8A  6E8A               	movwf	3978,c	;volatile
  3846                           
  3847                           ; BSR set to: 0
  3848                           ;interrupts.c: 99: PIR1bits.ADIF = 0;
  3849  000A8C  9C9E               	bcf	3998,6,c	;volatile
  3850                           
  3851                           ; BSR set to: 0
  3852                           ;interrupts.c: 100: adc_int_handler();
  3853  000A8E  ECEC  F008         	call	_adc_int_handler	;wreg free
  3854  000A92                     i2l2579:
  3855                           
  3856                           ;interrupts.c: 101: }
  3857                           ;interrupts.c: 103: if (INTCONbits.TMR0IF) {
  3858  000A92  A4F2               	btfss	intcon,2,c	;volatile
  3859  000A94  D010               	goto	i2l2587
  3860                           
  3861                           ;interrupts.c: 104: LATBbits.LATB0 = !LATBbits.LATB0;
  3862  000A96  B08A               	btfsc	3978,0,c	;volatile
  3863  000A98  D002               	goto	i2u160_40
  3864  000A9A  0E01               	movlw	1
  3865  000A9C  D001               	goto	i2u160_46
  3866  000A9E                     i2u160_40:
  3867  000A9E  0E00               	movlw	0
  3868  000AA0                     i2u160_46:
  3869  000AA0  0100               	movlb	0	; () banked
  3870  000AA2  6FCA               	movwf	??_InterruptHandlerHigh& (0+255),b
  3871  000AA4  508A               	movf	3978,w,c	;volatile
  3872  000AA6  0100               	movlb	0	; () banked
  3873  000AA8  19CA               	xorwf	??_InterruptHandlerHigh& (0+255),w,b
  3874  000AAA  0BFE               	andlw	-2
  3875  000AAC  19CA               	xorwf	??_InterruptHandlerHigh& (0+255),w,b
  3876  000AAE  6E8A               	movwf	3978,c	;volatile
  3877                           
  3878                           ; BSR set to: 0
  3879                           ;interrupts.c: 105: INTCONbits.TMR0IF = 0;
  3880  000AB0  94F2               	bcf	intcon,2,c	;volatile
  3881                           
  3882                           ; BSR set to: 0
  3883                           ;interrupts.c: 107: timer0_int_handler();
  3884  000AB2  ECF9  F009         	call	_timer0_int_handler	;wreg free
  3885  000AB6                     i2l2587:
  3886                           
  3887                           ;interrupts.c: 108: }
  3888                           ;interrupts.c: 117: SleepIfOkay();
  3889  000AB6  ECDA  F007         	call	_SleepIfOkay	;wreg free
  3890  000ABA  C0D8  FFF5         	movff	??_InterruptHandlerHigh+14,tablat
  3891  000ABE  C0D7  FFF8         	movff	??_InterruptHandlerHigh+13,tblptru
  3892  000AC2  C0D6  FFF7         	movff	??_InterruptHandlerHigh+12,tblptrh
  3893  000AC6  C0D5  FFF6         	movff	??_InterruptHandlerHigh+11,tblptrl
  3894  000ACA  C0D4  FFF4         	movff	??_InterruptHandlerHigh+10,prodh
  3895  000ACE  C0D3  FFF3         	movff	??_InterruptHandlerHigh+9,prodl
  3896  000AD2  C0D2  FFDA         	movff	??_InterruptHandlerHigh+8,fsr2h
  3897  000AD6  C0D1  FFD9         	movff	??_InterruptHandlerHigh+7,fsr2l
  3898  000ADA  C0D0  FFE2         	movff	??_InterruptHandlerHigh+6,fsr1h
  3899  000ADE  C0CF  FFE1         	movff	??_InterruptHandlerHigh+5,fsr1l
  3900  000AE2  C0CE  FFEA         	movff	??_InterruptHandlerHigh+4,fsr0h
  3901  000AE6  C0CD  FFE9         	movff	??_InterruptHandlerHigh+3,fsr0l
  3902  000AEA  C0CC  FFFB         	movff	??_InterruptHandlerHigh+2,pclatu
  3903  000AEE  C0CB  FFFA         	movff	??_InterruptHandlerHigh+1,pclath
  3904  000AF2  0011               	retfie		f
  3905  000AF4                     __end_of_InterruptHandlerHigh:
  3906                           	opt stack 0
  3907                           pclatu	equ	0xFFB
  3908                           pclath	equ	0xFFA
  3909                           tblptru	equ	0xFF8
  3910                           tblptrh	equ	0xFF7
  3911                           tblptrl	equ	0xFF6
  3912                           tablat	equ	0xFF5
  3913                           prodh	equ	0xFF4
  3914                           prodl	equ	0xFF3
  3915                           intcon	equ	0xFF2
  3916                           postinc0	equ	0xFEE
  3917                           fsr0h	equ	0xFEA
  3918                           fsr0l	equ	0xFE9
  3919                           wreg	equ	0xFE8
  3920                           indf1	equ	0xFE7
  3921                           fsr1h	equ	0xFE2
  3922                           fsr1l	equ	0xFE1
  3923                           bsr	equ	0xFE0
  3924                           indf2	equ	0xFDF
  3925                           fsr2h	equ	0xFDA
  3926                           fsr2l	equ	0xFD9
  3927                           status	equ	0xFD8
  3928                           
  3929 ;; *************** function _timer0_int_handler *****************
  3930 ;; Defined at:
  3931 ;;		line 18 in file "../src/user_interrupts.c"
  3932 ;; Parameters:    Size  Location     Type
  3933 ;;		None
  3934 ;; Auto vars:     Size  Location     Type
  3935 ;;  msgtype         2    0        int 
  3936 ;;  length          2    0        int 
  3937 ;;  val             2    0        unsigned int 
  3938 ;; Return value:  Size  Location     Type
  3939 ;;		None               void
  3940 ;; Registers used:
  3941 ;;		wreg, fsr0l, fsr0h, fsr1l, fsr1h, fsr1l, fsr1h, fsr2l, fsr2h, status,2, status,0, pclat, btemp, btemp+1, btemp+2, bt
      +emp+3, btemp+4, btemp+5, btemp+6, btemp+7, btemp+8, btemp+9, btemp+10, btemp+11, tosl, structret, tblptrl, tblptrh, tblp
      +tru, prodl, prodh, bsr, cstack
  3942 ;; Tracked objects:
  3943 ;;		On entry : 0/0
  3944 ;;		On exit  : 0/0
  3945 ;;		Unchanged: 0/0
  3946 ;; Data sizes:     COMRAM   BANK0   BANK1   BANK2   BANK3
  3947 ;;      Params:         0       0       0       0       0
  3948 ;;      Locals:         0       0       0       0       0
  3949 ;;      Temps:          0       0       0       0       0
  3950 ;;      Totals:         0       0       0       0       0
  3951 ;;Total ram usage:        0 bytes
  3952 ;; Hardware stack levels used:    1
  3953 ;; Hardware stack levels required when called:    1
  3954 ;; This function calls:
  3955 ;;		_ConvertADC
  3956 ;;		_WriteTimer0
  3957 ;; This function is called by:
  3958 ;;		_InterruptHandlerHigh
  3959 ;; This function uses a non-reentrant model
  3960 ;;
  3961                           
  3962                           	psect	text28
  3963  0013F2                     __ptext28:
  3964                           	opt stack 0
  3965  0013F2                     _timer0_int_handler:
  3966                           	opt stack 19
  3967                           
  3968                           ;user_interrupts.c: 19: unsigned int val;
  3969                           ;user_interrupts.c: 20: int length, msgtype;
  3970                           ;user_interrupts.c: 27: WriteTimer0(0);
  3971                           
  3972                           ;incstack = 0
  3973  0013F2  0E00               	movlw	0
  3974  0013F4  6E30               	movwf	WriteTimer0@timer0+1,c
  3975  0013F6  0E00               	movlw	0
  3976  0013F8  6E2F               	movwf	WriteTimer0@timer0,c
  3977  0013FA  EC02  F00A         	call	_WriteTimer0	;wreg free
  3978                           
  3979                           ;user_interrupts.c: 33: ConvertADC();
  3980  0013FE  EC1D  F00A         	call	_ConvertADC	;wreg free
  3981  001402  0012               	return	
  3982  001404                     __end_of_timer0_int_handler:
  3983                           	opt stack 0
  3984                           pclatu	equ	0xFFB
  3985                           pclath	equ	0xFFA
  3986                           tblptru	equ	0xFF8
  3987                           tblptrh	equ	0xFF7
  3988                           tblptrl	equ	0xFF6
  3989                           tablat	equ	0xFF5
  3990                           prodh	equ	0xFF4
  3991                           prodl	equ	0xFF3
  3992                           intcon	equ	0xFF2
  3993                           postinc0	equ	0xFEE
  3994                           fsr0h	equ	0xFEA
  3995                           fsr0l	equ	0xFE9
  3996                           wreg	equ	0xFE8
  3997                           indf1	equ	0xFE7
  3998                           fsr1h	equ	0xFE2
  3999                           fsr1l	equ	0xFE1
  4000                           bsr	equ	0xFE0
  4001                           indf2	equ	0xFDF
  4002                           fsr2h	equ	0xFDA
  4003                           fsr2l	equ	0xFD9
  4004                           status	equ	0xFD8
  4005                           
  4006 ;; *************** function _WriteTimer0 *****************
  4007 ;; Defined at:
  4008 ;;		line 16 in file "/Applications/microchip/xc8/v1.30/sources/pic18/plib/Timers/t0write.c"
  4009 ;; Parameters:    Size  Location     Type
  4010 ;;  timer0          2   46[COMRAM] unsigned int 
  4011 ;; Auto vars:     Size  Location     Type
  4012 ;;  timer           2   48[COMRAM] struct Timers
  4013 ;; Return value:  Size  Location     Type
  4014 ;;		None               void
  4015 ;; Registers used:
  4016 ;;		None
  4017 ;; Tracked objects:
  4018 ;;		On entry : 0/0
  4019 ;;		On exit  : 0/0
  4020 ;;		Unchanged: 0/0
  4021 ;; Data sizes:     COMRAM   BANK0   BANK1   BANK2   BANK3
  4022 ;;      Params:         2       0       0       0       0
  4023 ;;      Locals:         2       0       0       0       0
  4024 ;;      Temps:          0       0       0       0       0
  4025 ;;      Totals:         4       0       0       0       0
  4026 ;;Total ram usage:        4 bytes
  4027 ;; Hardware stack levels used:    1
  4028 ;; This function calls:
  4029 ;;		Nothing
  4030 ;; This function is called by:
  4031 ;;		_timer0_int_handler
  4032 ;; This function uses a non-reentrant model
  4033 ;;
  4034                           
  4035                           	psect	text29
  4036  001404                     __ptext29:
  4037                           	opt stack 0
  4038  001404                     _WriteTimer0:
  4039                           	opt stack 19
  4040                           
  4041                           ;incstack = 0
  4042  001404  C02F  F031         	movff	WriteTimer0@timer0,WriteTimer0@timer
  4043  001408  C030  F032         	movff	WriteTimer0@timer0+1,WriteTimer0@timer+1
  4044  00140C  C032  FFD7         	movff	WriteTimer0@timer+1,4055	;volatile
  4045  001410  C031  FFD6         	movff	WriteTimer0@timer,4054	;volatile
  4046  001414  0012               	return	
  4047  001416                     __end_of_WriteTimer0:
  4048                           	opt stack 0
  4049                           pclatu	equ	0xFFB
  4050                           pclath	equ	0xFFA
  4051                           tblptru	equ	0xFF8
  4052                           tblptrh	equ	0xFF7
  4053                           tblptrl	equ	0xFF6
  4054                           tablat	equ	0xFF5
  4055                           prodh	equ	0xFF4
  4056                           prodl	equ	0xFF3
  4057                           intcon	equ	0xFF2
  4058                           postinc0	equ	0xFEE
  4059                           fsr0h	equ	0xFEA
  4060                           fsr0l	equ	0xFE9
  4061                           wreg	equ	0xFE8
  4062                           indf1	equ	0xFE7
  4063                           fsr1h	equ	0xFE2
  4064                           fsr1l	equ	0xFE1
  4065                           bsr	equ	0xFE0
  4066                           indf2	equ	0xFDF
  4067                           fsr2h	equ	0xFDA
  4068                           fsr2l	equ	0xFD9
  4069                           status	equ	0xFD8
  4070                           
  4071 ;; *************** function _ConvertADC *****************
  4072 ;; Defined at:
  4073 ;;		line 22 in file "/Applications/microchip/xc8/v1.30/sources/pic18/plib/ADC/adcconv.c"
  4074 ;; Parameters:    Size  Location     Type
  4075 ;;		None
  4076 ;; Auto vars:     Size  Location     Type
  4077 ;;		None
  4078 ;; Return value:  Size  Location     Type
  4079 ;;		None               void
  4080 ;; Registers used:
  4081 ;;		None
  4082 ;; Tracked objects:
  4083 ;;		On entry : 0/0
  4084 ;;		On exit  : 0/0
  4085 ;;		Unchanged: 0/0
  4086 ;; Data sizes:     COMRAM   BANK0   BANK1   BANK2   BANK3
  4087 ;;      Params:         0       0       0       0       0
  4088 ;;      Locals:         0       0       0       0       0
  4089 ;;      Temps:          0       0       0       0       0
  4090 ;;      Totals:         0       0       0       0       0
  4091 ;;Total ram usage:        0 bytes
  4092 ;; Hardware stack levels used:    1
  4093 ;; This function calls:
  4094 ;;		Nothing
  4095 ;; This function is called by:
  4096 ;;		_timer0_int_handler
  4097 ;; This function uses a non-reentrant model
  4098 ;;
  4099                           
  4100                           	psect	text30
  4101  00143A                     __ptext30:
  4102                           	opt stack 0
  4103  00143A                     _ConvertADC:
  4104                           	opt stack 19
  4105                           
  4106                           ;incstack = 0
  4107  00143A  82C2               	bsf	4034,1,c	;volatile
  4108  00143C  0012               	return	
  4109  00143E                     __end_of_ConvertADC:
  4110                           	opt stack 0
  4111                           pclatu	equ	0xFFB
  4112                           pclath	equ	0xFFA
  4113                           tblptru	equ	0xFF8
  4114                           tblptrh	equ	0xFF7
  4115                           tblptrl	equ	0xFF6
  4116                           tablat	equ	0xFF5
  4117                           prodh	equ	0xFF4
  4118                           prodl	equ	0xFF3
  4119                           intcon	equ	0xFF2
  4120                           postinc0	equ	0xFEE
  4121                           fsr0h	equ	0xFEA
  4122                           fsr0l	equ	0xFE9
  4123                           wreg	equ	0xFE8
  4124                           indf1	equ	0xFE7
  4125                           fsr1h	equ	0xFE2
  4126                           fsr1l	equ	0xFE1
  4127                           bsr	equ	0xFE0
  4128                           indf2	equ	0xFDF
  4129                           fsr2h	equ	0xFDA
  4130                           fsr2l	equ	0xFD9
  4131                           status	equ	0xFD8
  4132                           
  4133 ;; *************** function _i2c_int_handler *****************
  4134 ;; Defined at:
  4135 ;;		line 131 in file "../src/my_i2c.c"
  4136 ;; Parameters:    Size  Location     Type
  4137 ;;		None
  4138 ;; Auto vars:     Size  Location     Type
  4139 ;;  error_buf       3   11[BANK0 ] unsigned char [3]
  4140 ;;  data_read       1   19[BANK0 ] unsigned char 
  4141 ;;  msg_ready       1   18[BANK0 ] unsigned char 
  4142 ;;  msg_to_send     1   17[BANK0 ] unsigned char 
  4143 ;;  i2c_data        1   16[BANK0 ] unsigned char 
  4144 ;;  overrun_erro    1   15[BANK0 ] unsigned char 
  4145 ;;  data_written    1   14[BANK0 ] unsigned char 
  4146 ;; Return value:  Size  Location     Type
  4147 ;;		None               void
  4148 ;; Registers used:
  4149 ;;		wreg, fsr1l, fsr1h, fsr2l, fsr2h, status,2, status,0, prodl, prodh, cstack
  4150 ;; Tracked objects:
  4151 ;;		On entry : 0/0
  4152 ;;		On exit  : 0/0
  4153 ;;		Unchanged: 0/0
  4154 ;; Data sizes:     COMRAM   BANK0   BANK1   BANK2   BANK3
  4155 ;;      Params:         0       0       0       0       0
  4156 ;;      Locals:         0       9       0       0       0
  4157 ;;      Temps:          0       2       0       0       0
  4158 ;;      Totals:         0      11       0       0       0
  4159 ;;Total ram usage:       11 bytes
  4160 ;; Hardware stack levels used:    1
  4161 ;; Hardware stack levels required when called:    3
  4162 ;; This function calls:
  4163 ;;		_ToMainHigh_sendmsg
  4164 ;;		_handle_start
  4165 ;;		_start_i2c_slave_reply
  4166 ;; This function is called by:
  4167 ;;		_InterruptHandlerHigh
  4168 ;; This function uses a non-reentrant model
  4169 ;;
  4170                           
  4171                           	psect	text31
  4172  0000BA                     __ptext31:
  4173                           	opt stack 0
  4174  0000BA                     _i2c_int_handler:
  4175                           	opt stack 17
  4176                           
  4177                           ;my_i2c.c: 132: unsigned char i2c_data;
  4178                           ;my_i2c.c: 133: unsigned char data_read = 0;
  4179                           
  4180                           ;incstack = 0
  4181  0000BA  0100               	movlb	0	; () banked
  4182  0000BC  6FBF               	movwf	??_i2c_int_handler& (0+255),b
  4183  0000BE  0E00               	movlw	0
  4184  0000C0  0100               	movlb	0	; () banked
  4185  0000C2  0100               	movlb	0	; () banked
  4186  0000C4  6FC9               	movwf	i2c_int_handler@data_read& (0+255),b
  4187  0000C6  0100               	movlb	0	; () banked
  4188  0000C8  51BF               	movf	??_i2c_int_handler& (0+255),w,b
  4189                           
  4190                           ;my_i2c.c: 134: unsigned char data_written = 0;
  4191  0000CA  0100               	movlb	0	; () banked
  4192  0000CC  6FBF               	movwf	??_i2c_int_handler& (0+255),b
  4193  0000CE  0E00               	movlw	0
  4194  0000D0  0100               	movlb	0	; () banked
  4195  0000D2  0100               	movlb	0	; () banked
  4196  0000D4  6FC4               	movwf	i2c_int_handler@data_written& (0+255),b
  4197  0000D6  0100               	movlb	0	; () banked
  4198  0000D8  51BF               	movf	??_i2c_int_handler& (0+255),w,b
  4199                           
  4200                           ;my_i2c.c: 135: unsigned char msg_ready = 0;
  4201  0000DA  0100               	movlb	0	; () banked
  4202  0000DC  6FBF               	movwf	??_i2c_int_handler& (0+255),b
  4203  0000DE  0E00               	movlw	0
  4204  0000E0  0100               	movlb	0	; () banked
  4205  0000E2  0100               	movlb	0	; () banked
  4206  0000E4  6FC8               	movwf	i2c_int_handler@msg_ready& (0+255),b
  4207  0000E6  0100               	movlb	0	; () banked
  4208  0000E8  51BF               	movf	??_i2c_int_handler& (0+255),w,b
  4209                           
  4210                           ;my_i2c.c: 136: unsigned char msg_to_send = 0;
  4211  0000EA  0100               	movlb	0	; () banked
  4212  0000EC  6FBF               	movwf	??_i2c_int_handler& (0+255),b
  4213  0000EE  0E00               	movlw	0
  4214  0000F0  0100               	movlb	0	; () banked
  4215  0000F2  0100               	movlb	0	; () banked
  4216  0000F4  6FC7               	movwf	i2c_int_handler@msg_to_send& (0+255),b
  4217  0000F6  0100               	movlb	0	; () banked
  4218  0000F8  51BF               	movf	??_i2c_int_handler& (0+255),w,b
  4219                           
  4220                           ;my_i2c.c: 137: unsigned char overrun_error = 0;
  4221  0000FA  0100               	movlb	0	; () banked
  4222  0000FC  6FBF               	movwf	??_i2c_int_handler& (0+255),b
  4223  0000FE  0E00               	movlw	0
  4224  000100  0100               	movlb	0	; () banked
  4225  000102  0100               	movlb	0	; () banked
  4226  000104  6FC5               	movwf	i2c_int_handler@overrun_error& (0+255),b
  4227  000106  0100               	movlb	0	; () banked
  4228  000108  51BF               	movf	??_i2c_int_handler& (0+255),w,b
  4229                           
  4230                           ; BSR set to: 0
  4231                           ;my_i2c.c: 138: unsigned char error_buf[3];
  4232                           ;my_i2c.c: 141: if (SSPCON1bits.SSPOV == 1) {
  4233  00010A  ACC6               	btfss	4038,6,c	;volatile
  4234  00010C  D020               	goto	i2l2603
  4235                           
  4236                           ; BSR set to: 0
  4237                           ;my_i2c.c: 142: SSPCON1bits.SSPOV = 0;
  4238  00010E  9CC6               	bcf	4038,6,c	;volatile
  4239                           
  4240                           ; BSR set to: 0
  4241                           ;my_i2c.c: 146: ic_ptr->status = 0x5;
  4242  000110  EE20 F00C          	lfsr	2,12
  4243  000114  504C               	movf	_ic_ptr,w,c
  4244  000116  26D9               	addwf	fsr2l,f,c
  4245  000118  504D               	movf	_ic_ptr+1,w,c
  4246  00011A  22DA               	addwfc	fsr2h,f,c
  4247  00011C  0E05               	movlw	5
  4248  00011E  6EDF               	movwf	indf2,c
  4249                           
  4250                           ; BSR set to: 0
  4251                           ;my_i2c.c: 147: overrun_error = 1;
  4252  000120  0100               	movlb	0	; () banked
  4253  000122  6FBF               	movwf	??_i2c_int_handler& (0+255),b
  4254  000124  0E01               	movlw	1
  4255  000126  0100               	movlb	0	; () banked
  4256  000128  0100               	movlb	0	; () banked
  4257  00012A  6FC5               	movwf	i2c_int_handler@overrun_error& (0+255),b
  4258  00012C  0100               	movlb	0	; () banked
  4259  00012E  51BF               	movf	??_i2c_int_handler& (0+255),w,b
  4260                           
  4261                           ; BSR set to: 0
  4262                           ;my_i2c.c: 148: ic_ptr->error_count++;
  4263  000130  EE20 F00E          	lfsr	2,14
  4264  000134  504C               	movf	_ic_ptr,w,c
  4265  000136  26D9               	addwf	fsr2l,f,c
  4266  000138  504D               	movf	_ic_ptr+1,w,c
  4267  00013A  22DA               	addwfc	fsr2h,f,c
  4268  00013C  2ADF               	incf	indf2,f,c
  4269                           
  4270                           ; BSR set to: 0
  4271                           ;my_i2c.c: 149: ic_ptr->error_code = 0x4;
  4272  00013E  EE20 F00D          	lfsr	2,13
  4273  000142  504C               	movf	_ic_ptr,w,c
  4274  000144  26D9               	addwf	fsr2l,f,c
  4275  000146  504D               	movf	_ic_ptr+1,w,c
  4276  000148  22DA               	addwfc	fsr2h,f,c
  4277  00014A  0E04               	movlw	4
  4278  00014C  6EDF               	movwf	indf2,c
  4279  00014E                     i2l2603:
  4280                           
  4281                           ; BSR set to: 0
  4282                           ;my_i2c.c: 150: }
  4283                           ;my_i2c.c: 152: if (SSPSTATbits.BF == 1) {
  4284  00014E  A0C7               	btfss	4039,0,c	;volatile
  4285  000150  D00A               	goto	i2l2609
  4286                           
  4287                           ; BSR set to: 0
  4288                           ;my_i2c.c: 153: i2c_data = SSPBUF;
  4289  000152  CFC9 F0C6          	movff	4041,i2c_int_handler@i2c_data	;volatile
  4290                           
  4291                           ; BSR set to: 0
  4292                           ;my_i2c.c: 154: data_read = 1;
  4293  000156  0100               	movlb	0	; () banked
  4294  000158  6FBF               	movwf	??_i2c_int_handler& (0+255),b
  4295  00015A  0E01               	movlw	1
  4296  00015C  0100               	movlb	0	; () banked
  4297  00015E  0100               	movlb	0	; () banked
  4298  000160  6FC9               	movwf	i2c_int_handler@data_read& (0+255),b
  4299  000162  0100               	movlb	0	; () banked
  4300  000164  51BF               	movf	??_i2c_int_handler& (0+255),w,b
  4301  000166                     i2l2609:
  4302                           
  4303                           ; BSR set to: 0
  4304                           ;my_i2c.c: 155: }
  4305                           ;my_i2c.c: 157: if (!overrun_error) {
  4306  000166  0100               	movlb	0	; () banked
  4307  000168  0100               	movlb	0	; () banked
  4308  00016A  67C5               	tstfsz	i2c_int_handler@overrun_error& (0+255),b
  4309  00016C  D174               	goto	i2l252
  4310  00016E  D160               	goto	i2l2697
  4311  000170                     i2l254:
  4312                           
  4313                           ; BSR set to: 0
  4314                           ;my_i2c.c: 160: {
  4315                           ;my_i2c.c: 162: if (SSPSTATbits.S == 1) {
  4316  000170  A6C7               	btfss	4039,3,c	;volatile
  4317  000172  D171               	goto	i2l252
  4318                           
  4319                           ; BSR set to: 0
  4320                           ;my_i2c.c: 163: handle_start(data_read);
  4321  000174  0100               	movlb	0	; () banked
  4322  000176  0100               	movlb	0	; () banked
  4323  000178  51C9               	movf	i2c_int_handler@data_read& (0+255),w,b
  4324  00017A  EC6A  F006         	call	_handle_start
  4325                           
  4326                           ;my_i2c.c: 165: if (ic_ptr->status == 0x8) {
  4327  00017E  EE20 F00C          	lfsr	2,12
  4328  000182  504C               	movf	_ic_ptr,w,c
  4329  000184  26D9               	addwf	fsr2l,f,c
  4330  000186  504D               	movf	_ic_ptr+1,w,c
  4331  000188  22DA               	addwfc	fsr2h,f,c
  4332  00018A  0E08               	movlw	8
  4333  00018C  62DF               	cpfseq	indf2,c
  4334  00018E  D163               	goto	i2l252
  4335                           
  4336                           ;my_i2c.c: 166: data_read = 0;
  4337  000190  0100               	movlb	0	; () banked
  4338  000192  6FBF               	movwf	??_i2c_int_handler& (0+255),b
  4339  000194  0E00               	movlw	0
  4340  000196  0100               	movlb	0	; () banked
  4341  000198  0100               	movlb	0	; () banked
  4342  00019A  6FC9               	movwf	i2c_int_handler@data_read& (0+255),b
  4343  00019C  0100               	movlb	0	; () banked
  4344  00019E  51BF               	movf	??_i2c_int_handler& (0+255),w,b
  4345                           
  4346                           ;my_i2c.c: 167: msg_to_send = 1;
  4347  0001A0  0100               	movlb	0	; () banked
  4348  0001A2  6FBF               	movwf	??_i2c_int_handler& (0+255),b
  4349  0001A4  0E01               	movlw	1
  4350  0001A6  0100               	movlb	0	; () banked
  4351  0001A8  0100               	movlb	0	; () banked
  4352  0001AA  6FC7               	movwf	i2c_int_handler@msg_to_send& (0+255),b
  4353  0001AC  D136               	goto	L6
  4354  0001AE                     i2l258:
  4355                           
  4356                           ; BSR set to: 0
  4357                           ;my_i2c.c: 173: {
  4358                           ;my_i2c.c: 175: if (SSPSTATbits.P == 1) {
  4359  0001AE  A8C7               	btfss	4039,4,c	;volatile
  4360  0001B0  D027               	goto	i2l2629
  4361                           
  4362                           ; BSR set to: 0
  4363                           ;my_i2c.c: 178: ic_ptr->event_count++;
  4364  0001B2  EE20 F00B          	lfsr	2,11
  4365  0001B6  504C               	movf	_ic_ptr,w,c
  4366  0001B8  26D9               	addwf	fsr2l,f,c
  4367  0001BA  504D               	movf	_ic_ptr+1,w,c
  4368  0001BC  22DA               	addwfc	fsr2h,f,c
  4369  0001BE  2ADF               	incf	indf2,f,c
  4370                           
  4371                           ; BSR set to: 0
  4372                           ;my_i2c.c: 179: if (data_read) {
  4373  0001C0  0100               	movlb	0	; () banked
  4374  0001C2  0100               	movlb	0	; () banked
  4375  0001C4  51C9               	movf	i2c_int_handler@data_read& (0+255),w,b
  4376  0001C6  B4D8               	btfsc	status,2,c
  4377  0001C8  D12B               	goto	L8
  4378                           
  4379                           ; BSR set to: 0
  4380                           ;my_i2c.c: 180: if (SSPSTATbits.D_A == 0) {
  4381  0001CA  BAC7               	btfsc	4039,5,c	;volatile
  4382  0001CC  D009               	goto	i2l2627
  4383                           
  4384                           ; BSR set to: 0
  4385                           ;my_i2c.c: 181: msg_ready = 1;
  4386  0001CE  0100               	movlb	0	; () banked
  4387  0001D0  6FBF               	movwf	??_i2c_int_handler& (0+255),b
  4388  0001D2  0E01               	movlw	1
  4389  0001D4  0100               	movlb	0	; () banked
  4390  0001D6  0100               	movlb	0	; () banked
  4391  0001D8  6FC8               	movwf	i2c_int_handler@msg_ready& (0+255),b
  4392  0001DA  0100               	movlb	0	; () banked
  4393  0001DC  51BF               	movf	??_i2c_int_handler& (0+255),w,b
  4394                           
  4395                           ;my_i2c.c: 182: } else {
  4396  0001DE  D120               	goto	L8
  4397  0001E0                     i2l2627:
  4398                           
  4399                           ; BSR set to: 0
  4400                           ;my_i2c.c: 183: ic_ptr->error_count++;
  4401  0001E0  EE20 F00E          	lfsr	2,14
  4402  0001E4  504C               	movf	_ic_ptr,w,c
  4403  0001E6  26D9               	addwf	fsr2l,f,c
  4404  0001E8  504D               	movf	_ic_ptr+1,w,c
  4405  0001EA  22DA               	addwfc	fsr2h,f,c
  4406  0001EC  2ADF               	incf	indf2,f,c
  4407                           
  4408                           ;my_i2c.c: 184: ic_ptr->error_code = 0x6;
  4409  0001EE  EE20 F00D          	lfsr	2,13
  4410  0001F2  504C               	movf	_ic_ptr,w,c
  4411  0001F4  26D9               	addwf	fsr2l,f,c
  4412  0001F6  504D               	movf	_ic_ptr+1,w,c
  4413  0001F8  22DA               	addwfc	fsr2h,f,c
  4414  0001FA  0E06               	movlw	6
  4415  0001FC  6EDF               	movwf	indf2,c
  4416                           
  4417                           ; BSR set to: 0
  4418  0001FE  D110               	goto	L8
  4419  000200                     i2l2629:
  4420                           
  4421                           ; BSR set to: 0
  4422  000200  0100               	movlb	0	; () banked
  4423  000202  0100               	movlb	0	; () banked
  4424  000204  51C9               	movf	i2c_int_handler@data_read& (0+255),w,b
  4425  000206  B4D8               	btfsc	status,2,c
  4426  000208  D126               	goto	i2l252
  4427                           
  4428                           ; BSR set to: 0
  4429                           ;my_i2c.c: 189: ic_ptr->event_count++;
  4430  00020A  EE20 F00B          	lfsr	2,11
  4431  00020E  504C               	movf	_ic_ptr,w,c
  4432  000210  26D9               	addwf	fsr2l,f,c
  4433  000212  504D               	movf	_ic_ptr+1,w,c
  4434  000214  22DA               	addwfc	fsr2h,f,c
  4435  000216  2ADF               	incf	indf2,f,c
  4436                           
  4437                           ; BSR set to: 0
  4438                           ;my_i2c.c: 190: if (SSPSTATbits.D_A == 0) {
  4439  000218  BAC7               	btfsc	4039,5,c	;volatile
  4440  00021A  D013               	goto	i2l2645
  4441                           
  4442                           ; BSR set to: 0
  4443                           ;my_i2c.c: 191: if (SSPSTATbits.R_W == 0) {
  4444  00021C  B4C7               	btfsc	4039,2,c	;volatile
  4445  00021E  D008               	goto	i2l2639
  4446                           
  4447                           ; BSR set to: 0
  4448                           ;my_i2c.c: 192: ic_ptr->status = 0x7;
  4449  000220  EE20 F00C          	lfsr	2,12
  4450  000224  504C               	movf	_ic_ptr,w,c
  4451  000226  26D9               	addwf	fsr2l,f,c
  4452  000228  504D               	movf	_ic_ptr+1,w,c
  4453  00022A  22DA               	addwfc	fsr2h,f,c
  4454  00022C  0E07               	movlw	7
  4455  00022E  D05A               	goto	L5
  4456  000230                     i2l2639:
  4457                           
  4458                           ; BSR set to: 0
  4459                           ;my_i2c.c: 194: ic_ptr->status = 0x8;
  4460  000230  EE20 F00C          	lfsr	2,12
  4461  000234  504C               	movf	_ic_ptr,w,c
  4462  000236  26D9               	addwf	fsr2l,f,c
  4463  000238  504D               	movf	_ic_ptr+1,w,c
  4464  00023A  22DA               	addwfc	fsr2h,f,c
  4465  00023C  0E08               	movlw	8
  4466  00023E  6EDF               	movwf	indf2,c
  4467  000240  D0DE               	goto	L9
  4468  000242                     i2l2645:
  4469                           
  4470                           ; BSR set to: 0
  4471                           ;my_i2c.c: 200: ic_ptr->error_count++;
  4472  000242  EE20 F00E          	lfsr	2,14
  4473  000246  504C               	movf	_ic_ptr,w,c
  4474  000248  26D9               	addwf	fsr2l,f,c
  4475  00024A  504D               	movf	_ic_ptr+1,w,c
  4476  00024C  22DA               	addwfc	fsr2h,f,c
  4477  00024E  2ADF               	incf	indf2,f,c
  4478                           
  4479                           ;my_i2c.c: 201: ic_ptr->status = 0x5;
  4480  000250  EE20 F00C          	lfsr	2,12
  4481  000254  504C               	movf	_ic_ptr,w,c
  4482  000256  26D9               	addwf	fsr2l,f,c
  4483  000258  504D               	movf	_ic_ptr+1,w,c
  4484  00025A  22DA               	addwfc	fsr2h,f,c
  4485  00025C  0E05               	movlw	5
  4486  00025E  6EDF               	movwf	indf2,c
  4487                           
  4488                           ;my_i2c.c: 202: ic_ptr->error_code = 0x6;
  4489  000260  EE20 F00D          	lfsr	2,13
  4490  000264  504C               	movf	_ic_ptr,w,c
  4491  000266  26D9               	addwf	fsr2l,f,c
  4492  000268  504D               	movf	_ic_ptr+1,w,c
  4493  00026A  22DA               	addwfc	fsr2h,f,c
  4494  00026C  0E06               	movlw	6
  4495  00026E  D03A               	goto	L5
  4496  000270                     i2l2647:
  4497                           
  4498                           ; BSR set to: 0
  4499                           ;my_i2c.c: 208: {
  4500                           ;my_i2c.c: 209: if (ic_ptr->outbufind < ic_ptr->outbuflen) {
  4501  000270  EE20 F01A          	lfsr	2,26
  4502  000274  504C               	movf	_ic_ptr,w,c
  4503  000276  26D9               	addwf	fsr2l,f,c
  4504  000278  504D               	movf	_ic_ptr+1,w,c
  4505  00027A  22DA               	addwfc	fsr2h,f,c
  4506  00027C  50DF               	movf	indf2,w,c
  4507  00027E  0100               	movlb	0	; () banked
  4508  000280  6FBF               	movwf	??_i2c_int_handler& (0+255),b
  4509  000282  EE20 F019          	lfsr	2,25
  4510  000286  504C               	movf	_ic_ptr,w,c
  4511  000288  26D9               	addwf	fsr2l,f,c
  4512  00028A  504D               	movf	_ic_ptr+1,w,c
  4513  00028C  22DA               	addwfc	fsr2h,f,c
  4514  00028E  50DF               	movf	indf2,w,c
  4515  000290  0100               	movlb	0	; () banked
  4516  000292  5DBF               	subwf	??_i2c_int_handler& (0+255),w,b
  4517  000294  B0D8               	btfsc	status,0,c
  4518  000296  D0C4               	goto	L8
  4519                           
  4520                           ; BSR set to: 0
  4521                           ;my_i2c.c: 210: SSPBUF = ic_ptr->outbuffer[ic_ptr->outbufind];
  4522  000298  EE20 F01A          	lfsr	2,26
  4523  00029C  504C               	movf	_ic_ptr,w,c
  4524  00029E  26D9               	addwf	fsr2l,f,c
  4525  0002A0  504D               	movf	_ic_ptr+1,w,c
  4526  0002A2  22DA               	addwfc	fsr2h,f,c
  4527  0002A4  50DF               	movf	indf2,w,c
  4528  0002A6  0100               	movlb	0	; () banked
  4529  0002A8  6FBF               	movwf	??_i2c_int_handler& (0+255),b
  4530  0002AA  0100               	movlb	0	; () banked
  4531  0002AC  51BF               	movf	??_i2c_int_handler& (0+255),w,b
  4532  0002AE  0D01               	mullw	1
  4533  0002B0  0E0F               	movlw	15
  4534  0002B2  26F3               	addwf	prodl,f,c
  4535  0002B4  0E00               	movlw	0
  4536  0002B6  22F4               	addwfc	prodh,f,c
  4537  0002B8  50F3               	movf	prodl,w,c
  4538  0002BA  244C               	addwf	_ic_ptr,w,c
  4539  0002BC  6ED9               	movwf	fsr2l,c
  4540  0002BE  50F4               	movf	prodh,w,c
  4541  0002C0  204D               	addwfc	_ic_ptr+1,w,c
  4542  0002C2  6EDA               	movwf	fsr2h,c
  4543  0002C4  50DF               	movf	indf2,w,c
  4544  0002C6  6EC9               	movwf	4041,c	;volatile
  4545                           
  4546                           ; BSR set to: 0
  4547                           ;my_i2c.c: 211: ic_ptr->outbufind++;
  4548  0002C8  EE20 F01A          	lfsr	2,26
  4549  0002CC  504C               	movf	_ic_ptr,w,c
  4550  0002CE  26D9               	addwf	fsr2l,f,c
  4551  0002D0  504D               	movf	_ic_ptr+1,w,c
  4552  0002D2  22DA               	addwfc	fsr2h,f,c
  4553  0002D4  2ADF               	incf	indf2,f,c
  4554                           
  4555                           ; BSR set to: 0
  4556                           ;my_i2c.c: 212: data_written = 1;
  4557  0002D6  0100               	movlb	0	; () banked
  4558  0002D8  6FBF               	movwf	??_i2c_int_handler& (0+255),b
  4559  0002DA  0E01               	movlw	1
  4560  0002DC  0100               	movlb	0	; () banked
  4561  0002DE  0100               	movlb	0	; () banked
  4562  0002E0  6FC4               	movwf	i2c_int_handler@data_written& (0+255),b
  4563  0002E2  D09B               	goto	L6
  4564  0002E4                     L5:
  4565  0002E4  6EDF               	movwf	indf2,c
  4566  0002E6  D0B7               	goto	i2l252
  4567  0002E8                     i2l272:
  4568                           
  4569                           ; BSR set to: 0
  4570                           ;my_i2c.c: 220: {
  4571                           ;my_i2c.c: 222: if (SSPSTATbits.P == 1) {
  4572  0002E8  A8C7               	btfss	4039,4,c	;volatile
  4573  0002EA  D04C               	goto	i2l2675
  4574                           
  4575                           ; BSR set to: 0
  4576                           ;my_i2c.c: 224: ic_ptr->event_count++;
  4577  0002EC  EE20 F00B          	lfsr	2,11
  4578  0002F0  504C               	movf	_ic_ptr,w,c
  4579  0002F2  26D9               	addwf	fsr2l,f,c
  4580  0002F4  504D               	movf	_ic_ptr+1,w,c
  4581  0002F6  22DA               	addwfc	fsr2h,f,c
  4582  0002F8  2ADF               	incf	indf2,f,c
  4583                           
  4584                           ; BSR set to: 0
  4585                           ;my_i2c.c: 225: if (data_read) {
  4586  0002FA  0100               	movlb	0	; () banked
  4587  0002FC  0100               	movlb	0	; () banked
  4588  0002FE  51C9               	movf	i2c_int_handler@data_read& (0+255),w,b
  4589  000300  B4D8               	btfsc	status,2,c
  4590  000302  D037               	goto	i2l2671
  4591                           
  4592                           ; BSR set to: 0
  4593                           ;my_i2c.c: 226: if (SSPSTATbits.D_A == 1) {
  4594  000304  AAC7               	btfss	4039,5,c	;volatile
  4595  000306  D01D               	goto	i2l2669
  4596                           
  4597                           ; BSR set to: 0
  4598                           ;my_i2c.c: 227: ic_ptr->buffer[ic_ptr->buflen] = i2c_data;
  4599  000308  EE20 F00A          	lfsr	2,10
  4600  00030C  504C               	movf	_ic_ptr,w,c
  4601  00030E  26D9               	addwf	fsr2l,f,c
  4602  000310  504D               	movf	_ic_ptr+1,w,c
  4603  000312  22DA               	addwfc	fsr2h,f,c
  4604  000314  50DF               	movf	indf2,w,c
  4605  000316  0100               	movlb	0	; () banked
  4606  000318  6FBF               	movwf	??_i2c_int_handler& (0+255),b
  4607  00031A  0100               	movlb	0	; () banked
  4608  00031C  51BF               	movf	??_i2c_int_handler& (0+255),w,b
  4609  00031E  0D01               	mullw	1
  4610  000320  50F3               	movf	prodl,w,c
  4611  000322  244C               	addwf	_ic_ptr,w,c
  4612  000324  6ED9               	movwf	fsr2l,c
  4613  000326  50F4               	movf	prodh,w,c
  4614  000328  204D               	addwfc	_ic_ptr+1,w,c
  4615  00032A  6EDA               	movwf	fsr2h,c
  4616  00032C  0100               	movlb	0	; () banked
  4617  00032E  C0C6  FFDF         	movff	i2c_int_handler@i2c_data,indf2
  4618                           
  4619                           ; BSR set to: 0
  4620                           ;my_i2c.c: 228: ic_ptr->buflen++;
  4621  000332  EE20 F00A          	lfsr	2,10
  4622  000336  504C               	movf	_ic_ptr,w,c
  4623  000338  26D9               	addwf	fsr2l,f,c
  4624  00033A  504D               	movf	_ic_ptr+1,w,c
  4625  00033C  22DA               	addwfc	fsr2h,f,c
  4626  00033E  2ADF               	incf	indf2,f,c
  4627  000340  D018               	goto	i2l2671
  4628  000342                     i2l2669:
  4629                           
  4630                           ; BSR set to: 0
  4631                           ;my_i2c.c: 231: ic_ptr->error_count++;
  4632  000342  EE20 F00E          	lfsr	2,14
  4633  000346  504C               	movf	_ic_ptr,w,c
  4634  000348  26D9               	addwf	fsr2l,f,c
  4635  00034A  504D               	movf	_ic_ptr+1,w,c
  4636  00034C  22DA               	addwfc	fsr2h,f,c
  4637  00034E  2ADF               	incf	indf2,f,c
  4638                           
  4639                           ;my_i2c.c: 232: ic_ptr->error_code = 0x6;
  4640  000350  EE20 F00D          	lfsr	2,13
  4641  000354  504C               	movf	_ic_ptr,w,c
  4642  000356  26D9               	addwf	fsr2l,f,c
  4643  000358  504D               	movf	_ic_ptr+1,w,c
  4644  00035A  22DA               	addwfc	fsr2h,f,c
  4645  00035C  0E06               	movlw	6
  4646  00035E  6EDF               	movwf	indf2,c
  4647                           
  4648                           ;my_i2c.c: 233: ic_ptr->status = 0x5;
  4649  000360  EE20 F00C          	lfsr	2,12
  4650  000364  504C               	movf	_ic_ptr,w,c
  4651  000366  26D9               	addwf	fsr2l,f,c
  4652  000368  504D               	movf	_ic_ptr+1,w,c
  4653  00036A  22DA               	addwfc	fsr2h,f,c
  4654  00036C  0E05               	movlw	5
  4655  00036E  6EDF               	movwf	indf2,c
  4656  000370  D057               	goto	L8
  4657  000372                     i2l2671:
  4658                           
  4659                           ; BSR set to: 0
  4660                           ;my_i2c.c: 236: msg_ready = 1;
  4661  000372  0100               	movlb	0	; () banked
  4662  000374  6FBF               	movwf	??_i2c_int_handler& (0+255),b
  4663  000376  0E01               	movlw	1
  4664  000378  0100               	movlb	0	; () banked
  4665  00037A  0100               	movlb	0	; () banked
  4666  00037C  6FC8               	movwf	i2c_int_handler@msg_ready& (0+255),b
  4667  00037E  0100               	movlb	0	; () banked
  4668  000380  51BF               	movf	??_i2c_int_handler& (0+255),w,b
  4669                           
  4670                           ; BSR set to: 0
  4671  000382  D04E               	goto	L8
  4672  000384                     i2l2675:
  4673                           
  4674                           ; BSR set to: 0
  4675  000384  0100               	movlb	0	; () banked
  4676  000386  0100               	movlb	0	; () banked
  4677  000388  51C9               	movf	i2c_int_handler@data_read& (0+255),w,b
  4678  00038A  B4D8               	btfsc	status,2,c
  4679  00038C  D064               	goto	i2l252
  4680                           
  4681                           ; BSR set to: 0
  4682                           ;my_i2c.c: 240: ic_ptr->event_count++;
  4683  00038E  EE20 F00B          	lfsr	2,11
  4684  000392  504C               	movf	_ic_ptr,w,c
  4685  000394  26D9               	addwf	fsr2l,f,c
  4686  000396  504D               	movf	_ic_ptr+1,w,c
  4687  000398  22DA               	addwfc	fsr2h,f,c
  4688  00039A  2ADF               	incf	indf2,f,c
  4689                           
  4690                           ; BSR set to: 0
  4691                           ;my_i2c.c: 241: if (SSPSTATbits.D_A == 1) {
  4692  00039C  AAC7               	btfss	4039,5,c	;volatile
  4693  00039E  D01D               	goto	i2l280
  4694                           
  4695                           ; BSR set to: 0
  4696                           ;my_i2c.c: 242: ic_ptr->buffer[ic_ptr->buflen] = i2c_data;
  4697  0003A0  EE20 F00A          	lfsr	2,10
  4698  0003A4  504C               	movf	_ic_ptr,w,c
  4699  0003A6  26D9               	addwf	fsr2l,f,c
  4700  0003A8  504D               	movf	_ic_ptr+1,w,c
  4701  0003AA  22DA               	addwfc	fsr2h,f,c
  4702  0003AC  50DF               	movf	indf2,w,c
  4703  0003AE  0100               	movlb	0	; () banked
  4704  0003B0  6FBF               	movwf	??_i2c_int_handler& (0+255),b
  4705  0003B2  0100               	movlb	0	; () banked
  4706  0003B4  51BF               	movf	??_i2c_int_handler& (0+255),w,b
  4707  0003B6  0D01               	mullw	1
  4708  0003B8  50F3               	movf	prodl,w,c
  4709  0003BA  244C               	addwf	_ic_ptr,w,c
  4710  0003BC  6ED9               	movwf	fsr2l,c
  4711  0003BE  50F4               	movf	prodh,w,c
  4712  0003C0  204D               	addwfc	_ic_ptr+1,w,c
  4713  0003C2  6EDA               	movwf	fsr2h,c
  4714  0003C4  0100               	movlb	0	; () banked
  4715  0003C6  C0C6  FFDF         	movff	i2c_int_handler@i2c_data,indf2
  4716                           
  4717                           ; BSR set to: 0
  4718                           ;my_i2c.c: 243: ic_ptr->buflen++;
  4719  0003CA  EE20 F00A          	lfsr	2,10
  4720  0003CE  504C               	movf	_ic_ptr,w,c
  4721  0003D0  26D9               	addwf	fsr2l,f,c
  4722  0003D2  504D               	movf	_ic_ptr+1,w,c
  4723  0003D4  22DA               	addwfc	fsr2h,f,c
  4724  0003D6  2ADF               	incf	indf2,f,c
  4725                           
  4726                           ;my_i2c.c: 244: } else {
  4727  0003D8  D03E               	goto	i2l252
  4728  0003DA                     i2l280:
  4729                           
  4730                           ; BSR set to: 0
  4731                           ;my_i2c.c: 245: if (SSPSTATbits.R_W == 1) {
  4732  0003DA  A4C7               	btfss	4039,2,c	;volatile
  4733  0003DC  D701               	goto	i2l2627
  4734                           
  4735                           ; BSR set to: 0
  4736                           ;my_i2c.c: 246: ic_ptr->status = 0x8;
  4737  0003DE  EE20 F00C          	lfsr	2,12
  4738  0003E2  504C               	movf	_ic_ptr,w,c
  4739  0003E4  26D9               	addwf	fsr2l,f,c
  4740  0003E6  504D               	movf	_ic_ptr+1,w,c
  4741  0003E8  22DA               	addwfc	fsr2h,f,c
  4742  0003EA  0E08               	movlw	8
  4743  0003EC  6EDF               	movwf	indf2,c
  4744                           
  4745                           ; BSR set to: 0
  4746                           ;my_i2c.c: 247: msg_ready = 1;
  4747  0003EE  0100               	movlb	0	; () banked
  4748  0003F0  6FBF               	movwf	??_i2c_int_handler& (0+255),b
  4749  0003F2  0E01               	movlw	1
  4750  0003F4  0100               	movlb	0	; () banked
  4751  0003F6  0100               	movlb	0	; () banked
  4752  0003F8  6FC8               	movwf	i2c_int_handler@msg_ready& (0+255),b
  4753  0003FA  0100               	movlb	0	; () banked
  4754  0003FC  51BF               	movf	??_i2c_int_handler& (0+255),w,b
  4755  0003FE                     L9:
  4756                           
  4757                           ; BSR set to: 0
  4758                           ;my_i2c.c: 248: msg_to_send = 1;
  4759  0003FE  0100               	movlb	0	; () banked
  4760  000400  6FBF               	movwf	??_i2c_int_handler& (0+255),b
  4761  000402  0E01               	movlw	1
  4762  000404  0100               	movlb	0	; () banked
  4763  000406  0100               	movlb	0	; () banked
  4764  000408  6FC7               	movwf	i2c_int_handler@msg_to_send& (0+255),b
  4765  00040A  0100               	movlb	0	; () banked
  4766  00040C  51BF               	movf	??_i2c_int_handler& (0+255),w,b
  4767                           
  4768                           ; BSR set to: 0
  4769                           ;my_i2c.c: 250: data_read = 0;
  4770  00040E  0100               	movlb	0	; () banked
  4771  000410  6FBF               	movwf	??_i2c_int_handler& (0+255),b
  4772  000412  0E00               	movlw	0
  4773  000414  0100               	movlb	0	; () banked
  4774  000416  0100               	movlb	0	; () banked
  4775  000418  6FC9               	movwf	i2c_int_handler@data_read& (0+255),b
  4776  00041A                     L6:
  4777  00041A  0100               	movlb	0	; () banked
  4778  00041C  51BF               	movf	??_i2c_int_handler& (0+255),w,b
  4779                           
  4780                           ;my_i2c.c: 251: } else {
  4781  00041E  D01B               	goto	i2l252
  4782  000420                     L8:
  4783                           
  4784                           ;my_i2c.c: 254: ic_ptr->status = 0x5;
  4785  000420  EE20 F00C          	lfsr	2,12
  4786  000424  504C               	movf	_ic_ptr,w,c
  4787  000426  26D9               	addwf	fsr2l,f,c
  4788  000428  504D               	movf	_ic_ptr+1,w,c
  4789  00042A  22DA               	addwfc	fsr2h,f,c
  4790  00042C  0E05               	movlw	5
  4791  00042E  D75A               	goto	L5
  4792  000430                     i2l2697:
  4793                           
  4794                           ; BSR set to: 0
  4795  000430  EE20 F00C          	lfsr	2,12
  4796  000434  504C               	movf	_ic_ptr,w,c
  4797  000436  26D9               	addwf	fsr2l,f,c
  4798  000438  504D               	movf	_ic_ptr+1,w,c
  4799  00043A  22DA               	addwfc	fsr2h,f,c
  4800  00043C  50DF               	movf	indf2,w,c
  4801                           
  4802                           ; Switch size 1, requested type "space"
  4803                           ; Number of cases is 4, Range of values is 5 to 8
  4804                           ; switch strategies available:
  4805                           ; Name         Instructions Cycles
  4806                           ; simple_byte           13     7 (average)
  4807                           ;	Chosen strategy is simple_byte
  4808  00043E  0A05               	xorlw	5	; case 5
  4809  000440  B4D8               	btfsc	status,2,c
  4810  000442  D696               	goto	i2l254
  4811  000444  0A03               	xorlw	3	; case 6
  4812  000446  B4D8               	btfsc	status,2,c
  4813  000448  D6B2               	goto	i2l258
  4814  00044A  0A01               	xorlw	1	; case 7
  4815  00044C  B4D8               	btfsc	status,2,c
  4816  00044E  D74C               	goto	i2l272
  4817  000450  0A0F               	xorlw	15	; case 8
  4818  000452  B4D8               	btfsc	status,2,c
  4819  000454  D70D               	goto	i2l2647
  4820  000456                     i2l252:
  4821                           
  4822                           ;my_i2c.c: 261: }
  4823                           ;my_i2c.c: 264: if (data_read || data_written) {
  4824  000456  0100               	movlb	0	; () banked
  4825  000458  0100               	movlb	0	; () banked
  4826  00045A  67C9               	tstfsz	i2c_int_handler@data_read& (0+255),b
  4827  00045C  D005               	goto	i2l286
  4828                           
  4829                           ; BSR set to: 0
  4830  00045E  0100               	movlb	0	; () banked
  4831  000460  0100               	movlb	0	; () banked
  4832  000462  51C4               	movf	i2c_int_handler@data_written& (0+255),w,b
  4833  000464  B4D8               	btfsc	status,2,c
  4834  000466  D002               	goto	i2l2703
  4835  000468                     i2l286:
  4836                           
  4837                           ; BSR set to: 0
  4838                           ;my_i2c.c: 266: if (SSPCON1bits.CKP == 0) {
  4839  000468  A8C6               	btfss	4038,4,c	;volatile
  4840                           
  4841                           ; BSR set to: 0
  4842                           ;my_i2c.c: 267: SSPCON1bits.CKP = 1;
  4843  00046A  88C6               	bsf	4038,4,c	;volatile
  4844  00046C                     i2l2703:
  4845                           
  4846                           ; BSR set to: 0
  4847                           ;my_i2c.c: 268: }
  4848                           ;my_i2c.c: 269: }
  4849                           ;my_i2c.c: 272: if ((ic_ptr->buflen > 10 - 2) && (!msg_ready)) {
  4850  00046C  EE20 F00A          	lfsr	2,10
  4851  000470  504C               	movf	_ic_ptr,w,c
  4852  000472  26D9               	addwf	fsr2l,f,c
  4853  000474  504D               	movf	_ic_ptr+1,w,c
  4854  000476  22DA               	addwfc	fsr2h,f,c
  4855  000478  0E08               	movlw	8
  4856  00047A  64DF               	cpfsgt	indf2,c
  4857  00047C  D01B               	goto	i2l2709
  4858                           
  4859                           ; BSR set to: 0
  4860  00047E  0100               	movlb	0	; () banked
  4861  000480  0100               	movlb	0	; () banked
  4862  000482  67C8               	tstfsz	i2c_int_handler@msg_ready& (0+255),b
  4863  000484  D017               	goto	i2l2709
  4864                           
  4865                           ; BSR set to: 0
  4866                           ;my_i2c.c: 273: ic_ptr->status = 0x5;
  4867  000486  EE20 F00C          	lfsr	2,12
  4868  00048A  504C               	movf	_ic_ptr,w,c
  4869  00048C  26D9               	addwf	fsr2l,f,c
  4870  00048E  504D               	movf	_ic_ptr+1,w,c
  4871  000490  22DA               	addwfc	fsr2h,f,c
  4872  000492  0E05               	movlw	5
  4873  000494  6EDF               	movwf	indf2,c
  4874                           
  4875                           ;my_i2c.c: 274: ic_ptr->error_count++;
  4876  000496  EE20 F00E          	lfsr	2,14
  4877  00049A  504C               	movf	_ic_ptr,w,c
  4878  00049C  26D9               	addwf	fsr2l,f,c
  4879  00049E  504D               	movf	_ic_ptr+1,w,c
  4880  0004A0  22DA               	addwfc	fsr2h,f,c
  4881  0004A2  2ADF               	incf	indf2,f,c
  4882                           
  4883                           ;my_i2c.c: 275: ic_ptr->error_code = 0x7;
  4884  0004A4  EE20 F00D          	lfsr	2,13
  4885  0004A8  504C               	movf	_ic_ptr,w,c
  4886  0004AA  26D9               	addwf	fsr2l,f,c
  4887  0004AC  504D               	movf	_ic_ptr+1,w,c
  4888  0004AE  22DA               	addwfc	fsr2h,f,c
  4889  0004B0  0E07               	movlw	7
  4890  0004B2  6EDF               	movwf	indf2,c
  4891  0004B4                     i2l2709:
  4892                           
  4893                           ; BSR set to: 0
  4894                           ;my_i2c.c: 276: }
  4895                           ;my_i2c.c: 278: if (msg_ready) {
  4896  0004B4  0100               	movlb	0	; () banked
  4897  0004B6  0100               	movlb	0	; () banked
  4898  0004B8  51C8               	movf	i2c_int_handler@msg_ready& (0+255),w,b
  4899  0004BA  B4D8               	btfsc	status,2,c
  4900  0004BC  D038               	goto	i2l2717
  4901                           
  4902                           ; BSR set to: 0
  4903                           ;my_i2c.c: 279: ic_ptr->buffer[ic_ptr->buflen] = ic_ptr->event_count;
  4904  0004BE  EE20 F00B          	lfsr	2,11
  4905  0004C2  504C               	movf	_ic_ptr,w,c
  4906  0004C4  26D9               	addwf	fsr2l,f,c
  4907  0004C6  504D               	movf	_ic_ptr+1,w,c
  4908  0004C8  22DA               	addwfc	fsr2h,f,c
  4909  0004CA  EE10 F00A          	lfsr	1,10
  4910  0004CE  504C               	movf	_ic_ptr,w,c
  4911  0004D0  26E1               	addwf	fsr1l,f,c
  4912  0004D2  504D               	movf	_ic_ptr+1,w,c
  4913  0004D4  22E2               	addwfc	fsr1h,f,c
  4914  0004D6  50E7               	movf	indf1,w,c
  4915  0004D8  0100               	movlb	0	; () banked
  4916  0004DA  6FBF               	movwf	??_i2c_int_handler& (0+255),b
  4917  0004DC  0100               	movlb	0	; () banked
  4918  0004DE  51BF               	movf	??_i2c_int_handler& (0+255),w,b
  4919  0004E0  0D01               	mullw	1
  4920  0004E2  50F3               	movf	prodl,w,c
  4921  0004E4  244C               	addwf	_ic_ptr,w,c
  4922  0004E6  6EE1               	movwf	fsr1l,c
  4923  0004E8  50F4               	movf	prodh,w,c
  4924  0004EA  204D               	addwfc	_ic_ptr+1,w,c
  4925  0004EC  6EE2               	movwf	fsr1h,c
  4926  0004EE  CFDF FFE7          	movff	indf2,indf1
  4927                           
  4928                           ; BSR set to: 0
  4929                           ;my_i2c.c: 280: ToMainHigh_sendmsg(ic_ptr->buflen + 1, 40, (void *) ic_ptr->buffer);
  4930  0004F2  0100               	movlb	0	; () banked
  4931  0004F4  6FBF               	movwf	??_i2c_int_handler& (0+255),b
  4932  0004F6  0E28               	movlw	40
  4933  0004F8  0100               	movlb	0	; () banked
  4934  0004FA  0100               	movlb	0	; () banked
  4935  0004FC  6FBB               	movwf	ToMainHigh_sendmsg@msgtype& (0+255),b
  4936  0004FE  0100               	movlb	0	; () banked
  4937  000500  51BF               	movf	??_i2c_int_handler& (0+255),w,b
  4938  000502  0100               	movlb	0	; () banked
  4939  000504  C04D  F0BD         	movff	_ic_ptr+1,ToMainHigh_sendmsg@data+1
  4940  000508  0100               	movlb	0	; () banked
  4941  00050A  C04C  F0BC         	movff	_ic_ptr,ToMainHigh_sendmsg@data
  4942  00050E  EE20 F00A          	lfsr	2,10
  4943  000512  504C               	movf	_ic_ptr,w,c
  4944  000514  26D9               	addwf	fsr2l,f,c
  4945  000516  504D               	movf	_ic_ptr+1,w,c
  4946  000518  22DA               	addwfc	fsr2h,f,c
  4947  00051A  50DF               	movf	indf2,w,c
  4948  00051C  0100               	movlb	0	; () banked
  4949  00051E  6FC0               	movwf	(??_i2c_int_handler+1)& (0+255),b
  4950  000520  0100               	movlb	0	; () banked
  4951  000522  29C0               	incf	(??_i2c_int_handler+1)& (0+255),w,b
  4952  000524  EC67  F009         	call	_ToMainHigh_sendmsg
  4953                           
  4954                           ;my_i2c.c: 281: ic_ptr->buflen = 0;
  4955  000528  EE20 F00A          	lfsr	2,10
  4956  00052C  D03E               	goto	L7
  4957  00052E                     i2l2717:
  4958  00052E  EE20 F00E          	lfsr	2,14
  4959  000532  504C               	movf	_ic_ptr,w,c
  4960  000534  26D9               	addwf	fsr2l,f,c
  4961  000536  504D               	movf	_ic_ptr+1,w,c
  4962  000538  22DA               	addwfc	fsr2h,f,c
  4963  00053A  50DF               	movf	indf2,w,c
  4964  00053C  B4D8               	btfsc	status,2,c
  4965  00053E  D03B               	goto	i2l2725
  4966                           
  4967                           ;my_i2c.c: 283: error_buf[0] = ic_ptr->error_count;
  4968  000540  EE20 F00E          	lfsr	2,14
  4969  000544  504C               	movf	_ic_ptr,w,c
  4970  000546  26D9               	addwf	fsr2l,f,c
  4971  000548  504D               	movf	_ic_ptr+1,w,c
  4972  00054A  22DA               	addwfc	fsr2h,f,c
  4973  00054C  50DF               	movf	indf2,w,c
  4974  00054E  0100               	movlb	0	; () banked
  4975  000550  0100               	movlb	0	; () banked
  4976  000552  6FC1               	movwf	i2c_int_handler@error_buf& (0+255),b
  4977                           
  4978                           ;my_i2c.c: 284: error_buf[1] = ic_ptr->error_code;
  4979  000554  EE20 F00D          	lfsr	2,13
  4980  000558  504C               	movf	_ic_ptr,w,c
  4981  00055A  26D9               	addwf	fsr2l,f,c
  4982  00055C  504D               	movf	_ic_ptr+1,w,c
  4983  00055E  22DA               	addwfc	fsr2h,f,c
  4984  000560  50DF               	movf	indf2,w,c
  4985  000562  0100               	movlb	0	; () banked
  4986  000564  0100               	movlb	0	; () banked
  4987  000566  6FC2               	movwf	(i2c_int_handler@error_buf+1)& (0+255),b
  4988                           
  4989                           ;my_i2c.c: 285: error_buf[2] = ic_ptr->event_count;
  4990  000568  EE20 F00B          	lfsr	2,11
  4991  00056C  504C               	movf	_ic_ptr,w,c
  4992  00056E  26D9               	addwf	fsr2l,f,c
  4993  000570  504D               	movf	_ic_ptr+1,w,c
  4994  000572  22DA               	addwfc	fsr2h,f,c
  4995  000574  50DF               	movf	indf2,w,c
  4996  000576  0100               	movlb	0	; () banked
  4997  000578  0100               	movlb	0	; () banked
  4998  00057A  6FC3               	movwf	(i2c_int_handler@error_buf+2)& (0+255),b
  4999                           
  5000                           ; BSR set to: 0
  5001                           ;my_i2c.c: 286: ToMainHigh_sendmsg(sizeof (unsigned char) *3, 41, (void *) error_buf);
  5002  00057C  0100               	movlb	0	; () banked
  5003  00057E  6FBF               	movwf	??_i2c_int_handler& (0+255),b
  5004  000580  0E29               	movlw	41
  5005  000582  0100               	movlb	0	; () banked
  5006  000584  0100               	movlb	0	; () banked
  5007  000586  6FBB               	movwf	ToMainHigh_sendmsg@msgtype& (0+255),b
  5008  000588  0100               	movlb	0	; () banked
  5009  00058A  51BF               	movf	??_i2c_int_handler& (0+255),w,b
  5010  00058C  0100               	movlb	0	; () banked
  5011  00058E  0E00               	movlw	high i2c_int_handler@error_buf
  5012  000590  0100               	movlb	0	; () banked
  5013  000592  0100               	movlb	0	; () banked
  5014  000594  6FBD               	movwf	(ToMainHigh_sendmsg@data+1)& (0+255),b
  5015  000596  0100               	movlb	0	; () banked
  5016  000598  0EC1               	movlw	low i2c_int_handler@error_buf
  5017  00059A  0100               	movlb	0	; () banked
  5018  00059C  0100               	movlb	0	; () banked
  5019  00059E  6FBC               	movwf	ToMainHigh_sendmsg@data& (0+255),b
  5020  0005A0  0E03               	movlw	3
  5021  0005A2  EC67  F009         	call	_ToMainHigh_sendmsg
  5022                           
  5023                           ;my_i2c.c: 287: ic_ptr->error_count = 0;
  5024  0005A6  EE20 F00E          	lfsr	2,14
  5025  0005AA                     L7:
  5026  0005AA  504C               	movf	_ic_ptr,w,c
  5027  0005AC  26D9               	addwf	fsr2l,f,c
  5028  0005AE  504D               	movf	_ic_ptr+1,w,c
  5029  0005B0  22DA               	addwfc	fsr2h,f,c
  5030  0005B2  0E00               	movlw	0
  5031  0005B4  6EDF               	movwf	indf2,c
  5032  0005B6                     i2l2725:
  5033                           
  5034                           ;my_i2c.c: 288: }
  5035                           ;my_i2c.c: 289: if (msg_to_send) {
  5036  0005B6  0100               	movlb	0	; () banked
  5037  0005B8  0100               	movlb	0	; () banked
  5038  0005BA  51C7               	movf	i2c_int_handler@msg_to_send& (0+255),w,b
  5039  0005BC  B4D8               	btfsc	status,2,c
  5040  0005BE  0012               	return	
  5041                           
  5042                           ; BSR set to: 0
  5043                           ;my_i2c.c: 292: start_i2c_slave_reply(300, 0);
  5044  0005C0  0E00               	movlw	0
  5045  0005C2  6E30               	movwf	start_i2c_slave_reply@msg+1,c
  5046  0005C4  0E00               	movlw	0
  5047  0005C6  6E2F               	movwf	start_i2c_slave_reply@msg,c
  5048  0005C8  0E2C               	movlw	44
  5049  0005CA  ECF0  F002         	call	_start_i2c_slave_reply
  5050                           
  5051                           ;my_i2c.c: 293: msg_to_send = 0;
  5052  0005CE  0100               	movlb	0	; () banked
  5053  0005D0  6FBF               	movwf	??_i2c_int_handler& (0+255),b
  5054  0005D2  0E00               	movlw	0
  5055  0005D4  0100               	movlb	0	; () banked
  5056  0005D6  0100               	movlb	0	; () banked
  5057  0005D8  6FC7               	movwf	i2c_int_handler@msg_to_send& (0+255),b
  5058  0005DA  0100               	movlb	0	; () banked
  5059  0005DC  51BF               	movf	??_i2c_int_handler& (0+255),w,b
  5060  0005DE  0012               	return	
  5061  0005E0                     __end_of_i2c_int_handler:
  5062                           	opt stack 0
  5063                           pclatu	equ	0xFFB
  5064                           pclath	equ	0xFFA
  5065                           tblptru	equ	0xFF8
  5066                           tblptrh	equ	0xFF7
  5067                           tblptrl	equ	0xFF6
  5068                           tablat	equ	0xFF5
  5069                           prodh	equ	0xFF4
  5070                           prodl	equ	0xFF3
  5071                           intcon	equ	0xFF2
  5072                           postinc0	equ	0xFEE
  5073                           fsr0h	equ	0xFEA
  5074                           fsr0l	equ	0xFE9
  5075                           wreg	equ	0xFE8
  5076                           indf1	equ	0xFE7
  5077                           fsr1h	equ	0xFE2
  5078                           fsr1l	equ	0xFE1
  5079                           bsr	equ	0xFE0
  5080                           indf2	equ	0xFDF
  5081                           fsr2h	equ	0xFDA
  5082                           fsr2l	equ	0xFD9
  5083                           status	equ	0xFD8
  5084                           
  5085 ;; *************** function _start_i2c_slave_reply *****************
  5086 ;; Defined at:
  5087 ;;		line 67 in file "../src/my_i2c.c"
  5088 ;; Parameters:    Size  Location     Type
  5089 ;;  length          1    wreg     unsigned char 
  5090 ;;  msg             2   46[COMRAM] PTR unsigned char 
  5091 ;;		 -> NULL(0), 
  5092 ;; Auto vars:     Size  Location     Type
  5093 ;;  length          1   51[COMRAM] unsigned char 
  5094 ;; Return value:  Size  Location     Type
  5095 ;;		None               void
  5096 ;; Registers used:
  5097 ;;		wreg, fsr1l, fsr1h, fsr2l, fsr2h, status,2, status,0, prodl, prodh
  5098 ;; Tracked objects:
  5099 ;;		On entry : 0/0
  5100 ;;		On exit  : 0/0
  5101 ;;		Unchanged: 0/0
  5102 ;; Data sizes:     COMRAM   BANK0   BANK1   BANK2   BANK3
  5103 ;;      Params:         2       0       0       0       0
  5104 ;;      Locals:         1       0       0       0       0
  5105 ;;      Temps:          3       0       0       0       0
  5106 ;;      Totals:         6       0       0       0       0
  5107 ;;Total ram usage:        6 bytes
  5108 ;; Hardware stack levels used:    1
  5109 ;; This function calls:
  5110 ;;		Nothing
  5111 ;; This function is called by:
  5112 ;;		_i2c_int_handler
  5113 ;; This function uses a non-reentrant model
  5114 ;;
  5115                           
  5116                           	psect	text32
  5117  0005E0                     __ptext32:
  5118                           	opt stack 0
  5119  0005E0                     _start_i2c_slave_reply:
  5120                           	opt stack 19
  5121                           
  5122                           ; BSR set to: 0
  5123                           ;incstack = 0
  5124                           ;start_i2c_slave_reply@length stored from wreg
  5125  0005E0  CFE8 F034          	movff	wreg,start_i2c_slave_reply@length
  5126                           
  5127                           ;my_i2c.c: 71: for (ic_ptr->outbuflen = 0; ic_ptr->outbuflen < length; ic_ptr->outbuflen
      +                          ++) {
  5128  0005E4  EE20 F019          	lfsr	2,25
  5129  0005E8  504C               	movf	_ic_ptr,w,c
  5130  0005EA  26D9               	addwf	fsr2l,f,c
  5131  0005EC  504D               	movf	_ic_ptr+1,w,c
  5132  0005EE  22DA               	addwfc	fsr2h,f,c
  5133  0005F0  0E00               	movlw	0
  5134  0005F2  6EDF               	movwf	indf2,c
  5135  0005F4  D079               	goto	i2l2359
  5136  0005F6                     i2l2347:
  5137                           
  5138                           ;my_i2c.c: 74: if(ic_ptr->outbuflen < ic_ptr->sendBufLen)
  5139  0005F6  EE20 F019          	lfsr	2,25
  5140  0005FA  504C               	movf	_ic_ptr,w,c
  5141  0005FC  26D9               	addwf	fsr2l,f,c
  5142  0005FE  504D               	movf	_ic_ptr+1,w,c
  5143  000600  22DA               	addwfc	fsr2h,f,c
  5144  000602  50DF               	movf	indf2,w,c
  5145  000604  6E31               	movwf	??_start_i2c_slave_reply& (0+255),c
  5146  000606  EE20 F026          	lfsr	2,38
  5147  00060A  504C               	movf	_ic_ptr,w,c
  5148  00060C  26D9               	addwf	fsr2l,f,c
  5149  00060E  504D               	movf	_ic_ptr+1,w,c
  5150  000610  22DA               	addwfc	fsr2h,f,c
  5151  000612  50DF               	movf	indf2,w,c
  5152  000614  5C31               	subwf	??_start_i2c_slave_reply,w,c
  5153  000616  B0D8               	btfsc	status,0,c
  5154  000618  D01E               	goto	i2l2351
  5155                           
  5156                           ;my_i2c.c: 75: {
  5157                           ;my_i2c.c: 76: ic_ptr->outbuffer[ic_ptr->outbuflen] = ic_ptr->sendBuf[ic_ptr->outbuflen];
  5158  00061A  EE20 F019          	lfsr	2,25
  5159  00061E  504C               	movf	_ic_ptr,w,c
  5160  000620  26D9               	addwf	fsr2l,f,c
  5161  000622  504D               	movf	_ic_ptr+1,w,c
  5162  000624  22DA               	addwfc	fsr2h,f,c
  5163  000626  50DF               	movf	indf2,w,c
  5164  000628  6E31               	movwf	??_start_i2c_slave_reply& (0+255),c
  5165  00062A  5031               	movf	??_start_i2c_slave_reply,w,c
  5166  00062C  0D01               	mullw	1
  5167  00062E  0E1C               	movlw	28
  5168  000630  26F3               	addwf	prodl,f,c
  5169  000632  0E00               	movlw	0
  5170  000634  22F4               	addwfc	prodh,f,c
  5171  000636  50F3               	movf	prodl,w,c
  5172  000638  244C               	addwf	_ic_ptr,w,c
  5173  00063A  6ED9               	movwf	fsr2l,c
  5174  00063C  50F4               	movf	prodh,w,c
  5175  00063E  204D               	addwfc	_ic_ptr+1,w,c
  5176  000640  6EDA               	movwf	fsr2h,c
  5177  000642  EE10 F019          	lfsr	1,25
  5178  000646  504C               	movf	_ic_ptr,w,c
  5179  000648  26E1               	addwf	fsr1l,f,c
  5180  00064A  504D               	movf	_ic_ptr+1,w,c
  5181  00064C  22E2               	addwfc	fsr1h,f,c
  5182  00064E  50E7               	movf	indf1,w,c
  5183  000650  6E32               	movwf	(??_start_i2c_slave_reply+1)& (0+255),c
  5184  000652  5032               	movf	??_start_i2c_slave_reply+1,w,c
  5185  000654  D035               	goto	L11
  5186  000656                     i2l2351:
  5187                           
  5188                           ;my_i2c.c: 78: else if(ic_ptr->sendBufLen != 0)
  5189  000656  EE20 F026          	lfsr	2,38
  5190  00065A  504C               	movf	_ic_ptr,w,c
  5191  00065C  26D9               	addwf	fsr2l,f,c
  5192  00065E  504D               	movf	_ic_ptr+1,w,c
  5193  000660  22DA               	addwfc	fsr2h,f,c
  5194  000662  50DF               	movf	indf2,w,c
  5195  000664  B4D8               	btfsc	status,2,c
  5196  000666  D01D               	goto	i2l2355
  5197                           
  5198                           ;my_i2c.c: 79: {
  5199                           ;my_i2c.c: 80: ic_ptr->outbuffer[ic_ptr->outbuflen] = ic_ptr->sendBuf[ic_ptr->sendBufLen
      +                          -1];
  5200  000668  EE20 F026          	lfsr	2,38
  5201  00066C  504C               	movf	_ic_ptr,w,c
  5202  00066E  26D9               	addwf	fsr2l,f,c
  5203  000670  504D               	movf	_ic_ptr+1,w,c
  5204  000672  22DA               	addwfc	fsr2h,f,c
  5205  000674  50DF               	movf	indf2,w,c
  5206  000676  6E31               	movwf	??_start_i2c_slave_reply& (0+255),c
  5207  000678  6A32               	clrf	(??_start_i2c_slave_reply+1)& (0+255),c
  5208  00067A  0E1B               	movlw	27
  5209  00067C  2631               	addwf	??_start_i2c_slave_reply,f,c
  5210  00067E  0E00               	movlw	0
  5211  000680  2232               	addwfc	??_start_i2c_slave_reply+1,f,c
  5212  000682  5031               	movf	??_start_i2c_slave_reply,w,c
  5213  000684  244C               	addwf	_ic_ptr,w,c
  5214  000686  6ED9               	movwf	fsr2l,c
  5215  000688  5032               	movf	??_start_i2c_slave_reply+1,w,c
  5216  00068A  204D               	addwfc	_ic_ptr+1,w,c
  5217  00068C  6EDA               	movwf	fsr2h,c
  5218  00068E  EE10 F019          	lfsr	1,25
  5219  000692  504C               	movf	_ic_ptr,w,c
  5220  000694  26E1               	addwf	fsr1l,f,c
  5221  000696  504D               	movf	_ic_ptr+1,w,c
  5222  000698  22E2               	addwfc	fsr1h,f,c
  5223  00069A  50E7               	movf	indf1,w,c
  5224  00069C  6E33               	movwf	(??_start_i2c_slave_reply+2)& (0+255),c
  5225  00069E  5033               	movf	??_start_i2c_slave_reply+2,w,c
  5226  0006A0  D00F               	goto	L11
  5227  0006A2                     i2l2355:
  5228                           
  5229                           ;my_i2c.c: 82: else
  5230                           ;my_i2c.c: 83: {
  5231                           ;my_i2c.c: 84: ic_ptr->outbuffer[ic_ptr->outbuflen] = ic_ptr->sendBuf[5];
  5232  0006A2  EE20 F021          	lfsr	2,33
  5233  0006A6  504C               	movf	_ic_ptr,w,c
  5234  0006A8  26D9               	addwf	fsr2l,f,c
  5235  0006AA  504D               	movf	_ic_ptr+1,w,c
  5236  0006AC  22DA               	addwfc	fsr2h,f,c
  5237  0006AE  EE10 F019          	lfsr	1,25
  5238  0006B2  504C               	movf	_ic_ptr,w,c
  5239  0006B4  26E1               	addwf	fsr1l,f,c
  5240  0006B6  504D               	movf	_ic_ptr+1,w,c
  5241  0006B8  22E2               	addwfc	fsr1h,f,c
  5242  0006BA  50E7               	movf	indf1,w,c
  5243  0006BC  6E31               	movwf	??_start_i2c_slave_reply& (0+255),c
  5244  0006BE  5031               	movf	??_start_i2c_slave_reply,w,c
  5245  0006C0                     L11:
  5246  0006C0  0D01               	mullw	1
  5247  0006C2  0E0F               	movlw	15
  5248  0006C4  26F3               	addwf	prodl,f,c
  5249  0006C6  0E00               	movlw	0
  5250  0006C8  22F4               	addwfc	prodh,f,c
  5251  0006CA  50F3               	movf	prodl,w,c
  5252  0006CC  244C               	addwf	_ic_ptr,w,c
  5253  0006CE  6EE1               	movwf	fsr1l,c
  5254  0006D0  50F4               	movf	prodh,w,c
  5255  0006D2  204D               	addwfc	_ic_ptr+1,w,c
  5256  0006D4  6EE2               	movwf	fsr1h,c
  5257  0006D6  CFDF FFE7          	movff	indf2,indf1
  5258  0006DA  EE20 F019          	lfsr	2,25
  5259  0006DE  504C               	movf	_ic_ptr,w,c
  5260  0006E0  26D9               	addwf	fsr2l,f,c
  5261  0006E2  504D               	movf	_ic_ptr+1,w,c
  5262  0006E4  22DA               	addwfc	fsr2h,f,c
  5263  0006E6  2ADF               	incf	indf2,f,c
  5264  0006E8                     i2l2359:
  5265  0006E8  EE20 F019          	lfsr	2,25
  5266  0006EC  504C               	movf	_ic_ptr,w,c
  5267  0006EE  26D9               	addwf	fsr2l,f,c
  5268  0006F0  504D               	movf	_ic_ptr+1,w,c
  5269  0006F2  22DA               	addwfc	fsr2h,f,c
  5270  0006F4  50DF               	movf	indf2,w,c
  5271  0006F6  6E31               	movwf	??_start_i2c_slave_reply& (0+255),c
  5272  0006F8  5034               	movf	start_i2c_slave_reply@length,w,c
  5273  0006FA  5C31               	subwf	??_start_i2c_slave_reply,w,c
  5274  0006FC  A0D8               	btfss	status,0,c
  5275  0006FE  D77B               	goto	i2l2347
  5276                           
  5277                           ;my_i2c.c: 85: }
  5278                           ;my_i2c.c: 87: }
  5279                           ;my_i2c.c: 88: ic_ptr->sendBufLen =0;
  5280  000700  EE20 F026          	lfsr	2,38
  5281  000704  504C               	movf	_ic_ptr,w,c
  5282  000706  26D9               	addwf	fsr2l,f,c
  5283  000708  504D               	movf	_ic_ptr+1,w,c
  5284  00070A  22DA               	addwfc	fsr2h,f,c
  5285  00070C  0E00               	movlw	0
  5286  00070E  6EDF               	movwf	indf2,c
  5287                           
  5288                           ;my_i2c.c: 89: ic_ptr->outbuflen = length;
  5289  000710  EE20 F019          	lfsr	2,25
  5290  000714  504C               	movf	_ic_ptr,w,c
  5291  000716  26D9               	addwf	fsr2l,f,c
  5292  000718  504D               	movf	_ic_ptr+1,w,c
  5293  00071A  22DA               	addwfc	fsr2h,f,c
  5294  00071C  C034  FFDF         	movff	start_i2c_slave_reply@length,indf2
  5295                           
  5296                           ;my_i2c.c: 90: ic_ptr->outbufind = 1;
  5297  000720  EE20 F01A          	lfsr	2,26
  5298  000724  504C               	movf	_ic_ptr,w,c
  5299  000726  26D9               	addwf	fsr2l,f,c
  5300  000728  504D               	movf	_ic_ptr+1,w,c
  5301  00072A  22DA               	addwfc	fsr2h,f,c
  5302  00072C  0E01               	movlw	1
  5303  00072E  6EDF               	movwf	indf2,c
  5304                           
  5305                           ;my_i2c.c: 93: SSPBUF = ic_ptr->outbuffer[0];
  5306  000730  EE20 F00F          	lfsr	2,15
  5307  000734  504C               	movf	_ic_ptr,w,c
  5308  000736  26D9               	addwf	fsr2l,f,c
  5309  000738  504D               	movf	_ic_ptr+1,w,c
  5310  00073A  22DA               	addwfc	fsr2h,f,c
  5311  00073C  50DF               	movf	indf2,w,c
  5312  00073E  6EC9               	movwf	4041,c	;volatile
  5313                           
  5314                           ;my_i2c.c: 96: SSPCON1bits.CKP = 1;
  5315  000740  88C6               	bsf	4038,4,c	;volatile
  5316  000742  0012               	return	
  5317  000744                     __end_of_start_i2c_slave_reply:
  5318                           	opt stack 0
  5319                           pclatu	equ	0xFFB
  5320                           pclath	equ	0xFFA
  5321                           tblptru	equ	0xFF8
  5322                           tblptrh	equ	0xFF7
  5323                           tblptrl	equ	0xFF6
  5324                           tablat	equ	0xFF5
  5325                           prodh	equ	0xFF4
  5326                           prodl	equ	0xFF3
  5327                           intcon	equ	0xFF2
  5328                           postinc0	equ	0xFEE
  5329                           fsr0h	equ	0xFEA
  5330                           fsr0l	equ	0xFE9
  5331                           wreg	equ	0xFE8
  5332                           indf1	equ	0xFE7
  5333                           fsr1h	equ	0xFE2
  5334                           fsr1l	equ	0xFE1
  5335                           bsr	equ	0xFE0
  5336                           indf2	equ	0xFDF
  5337                           fsr2h	equ	0xFDA
  5338                           fsr2l	equ	0xFD9
  5339                           status	equ	0xFD8
  5340                           
  5341 ;; *************** function _handle_start *****************
  5342 ;; Defined at:
  5343 ;;		line 102 in file "../src/my_i2c.c"
  5344 ;; Parameters:    Size  Location     Type
  5345 ;;  data_read       1    wreg     unsigned char 
  5346 ;; Auto vars:     Size  Location     Type
  5347 ;;  data_read       1   46[COMRAM] unsigned char 
  5348 ;; Return value:  Size  Location     Type
  5349 ;;		None               void
  5350 ;; Registers used:
  5351 ;;		wreg, fsr2l, fsr2h, status,2, status,0
  5352 ;; Tracked objects:
  5353 ;;		On entry : 0/0
  5354 ;;		On exit  : 0/0
  5355 ;;		Unchanged: 0/0
  5356 ;; Data sizes:     COMRAM   BANK0   BANK1   BANK2   BANK3
  5357 ;;      Params:         0       0       0       0       0
  5358 ;;      Locals:         1       0       0       0       0
  5359 ;;      Temps:          0       0       0       0       0
  5360 ;;      Totals:         1       0       0       0       0
  5361 ;;Total ram usage:        1 bytes
  5362 ;; Hardware stack levels used:    1
  5363 ;; This function calls:
  5364 ;;		Nothing
  5365 ;; This function is called by:
  5366 ;;		_i2c_int_handler
  5367 ;; This function uses a non-reentrant model
  5368 ;;
  5369                           
  5370                           	psect	text33
  5371  000CD4                     __ptext33:
  5372                           	opt stack 0
  5373  000CD4                     _handle_start:
  5374                           	opt stack 19
  5375                           
  5376                           ;incstack = 0
  5377                           ;handle_start@data_read stored from wreg
  5378  000CD4  CFE8 F02F          	movff	wreg,handle_start@data_read
  5379                           
  5380                           ;my_i2c.c: 103: ic_ptr->event_count = 1;
  5381  000CD8  EE20 F00B          	lfsr	2,11
  5382  000CDC  504C               	movf	_ic_ptr,w,c
  5383  000CDE  26D9               	addwf	fsr2l,f,c
  5384  000CE0  504D               	movf	_ic_ptr+1,w,c
  5385  000CE2  22DA               	addwfc	fsr2h,f,c
  5386  000CE4  0E01               	movlw	1
  5387  000CE6  6EDF               	movwf	indf2,c
  5388                           
  5389                           ;my_i2c.c: 104: ic_ptr->buflen = 0;
  5390  000CE8  EE20 F00A          	lfsr	2,10
  5391  000CEC  504C               	movf	_ic_ptr,w,c
  5392  000CEE  26D9               	addwf	fsr2l,f,c
  5393  000CF0  504D               	movf	_ic_ptr+1,w,c
  5394  000CF2  22DA               	addwfc	fsr2h,f,c
  5395  000CF4  0E00               	movlw	0
  5396  000CF6  6EDF               	movwf	indf2,c
  5397                           
  5398                           ;my_i2c.c: 106: if (data_read) {
  5399  000CF8  502F               	movf	handle_start@data_read,w,c
  5400  000CFA  B4D8               	btfsc	status,2,c
  5401  000CFC  D02E               	goto	i2l2377
  5402                           
  5403                           ;my_i2c.c: 107: if (SSPSTATbits.D_A == 1) {
  5404  000CFE  AAC7               	btfss	4039,5,c	;volatile
  5405  000D00  D018               	goto	i2l242
  5406                           
  5407                           ;my_i2c.c: 110: ic_ptr->status = 0x5;
  5408  000D02  EE20 F00C          	lfsr	2,12
  5409  000D06  504C               	movf	_ic_ptr,w,c
  5410  000D08  26D9               	addwf	fsr2l,f,c
  5411  000D0A  504D               	movf	_ic_ptr+1,w,c
  5412  000D0C  22DA               	addwfc	fsr2h,f,c
  5413  000D0E  0E05               	movlw	5
  5414  000D10  6EDF               	movwf	indf2,c
  5415                           
  5416                           ;my_i2c.c: 111: ic_ptr->error_count++;
  5417  000D12  EE20 F00E          	lfsr	2,14
  5418  000D16  504C               	movf	_ic_ptr,w,c
  5419  000D18  26D9               	addwf	fsr2l,f,c
  5420  000D1A  504D               	movf	_ic_ptr+1,w,c
  5421  000D1C  22DA               	addwfc	fsr2h,f,c
  5422  000D1E  2ADF               	incf	indf2,f,c
  5423                           
  5424                           ;my_i2c.c: 112: ic_ptr->error_code = 0x5;
  5425  000D20  EE20 F00D          	lfsr	2,13
  5426  000D24  504C               	movf	_ic_ptr,w,c
  5427  000D26  26D9               	addwf	fsr2l,f,c
  5428  000D28  504D               	movf	_ic_ptr+1,w,c
  5429  000D2A  22DA               	addwfc	fsr2h,f,c
  5430  000D2C  0E05               	movlw	5
  5431  000D2E  6EDF               	movwf	indf2,c
  5432                           
  5433                           ;my_i2c.c: 113: } else {
  5434  000D30  0012               	return	
  5435  000D32                     i2l242:
  5436                           
  5437                           ;my_i2c.c: 114: if (SSPSTATbits.R_W == 1) {
  5438  000D32  A4C7               	btfss	4039,2,c	;volatile
  5439  000D34  D009               	goto	i2l2375
  5440                           
  5441                           ;my_i2c.c: 115: ic_ptr->status = 0x8;
  5442  000D36  EE20 F00C          	lfsr	2,12
  5443  000D3A  504C               	movf	_ic_ptr,w,c
  5444  000D3C  26D9               	addwf	fsr2l,f,c
  5445  000D3E  504D               	movf	_ic_ptr+1,w,c
  5446  000D40  22DA               	addwfc	fsr2h,f,c
  5447  000D42  0E08               	movlw	8
  5448  000D44  6EDF               	movwf	indf2,c
  5449                           
  5450                           ;my_i2c.c: 116: } else {
  5451  000D46  0012               	return	
  5452  000D48                     i2l2375:
  5453                           
  5454                           ;my_i2c.c: 117: ic_ptr->status = 0x7;
  5455  000D48  EE20 F00C          	lfsr	2,12
  5456  000D4C  504C               	movf	_ic_ptr,w,c
  5457  000D4E  26D9               	addwf	fsr2l,f,c
  5458  000D50  504D               	movf	_ic_ptr+1,w,c
  5459  000D52  22DA               	addwfc	fsr2h,f,c
  5460  000D54  0E07               	movlw	7
  5461  000D56  6EDF               	movwf	indf2,c
  5462  000D58  0012               	return	
  5463  000D5A                     i2l2377:
  5464                           
  5465                           ;my_i2c.c: 121: ic_ptr->status = 0x6;
  5466  000D5A  EE20 F00C          	lfsr	2,12
  5467  000D5E  504C               	movf	_ic_ptr,w,c
  5468  000D60  26D9               	addwf	fsr2l,f,c
  5469  000D62  504D               	movf	_ic_ptr+1,w,c
  5470  000D64  22DA               	addwfc	fsr2h,f,c
  5471  000D66  0E06               	movlw	6
  5472  000D68  6EDF               	movwf	indf2,c
  5473  000D6A  0012               	return	
  5474  000D6C                     __end_of_handle_start:
  5475                           	opt stack 0
  5476                           pclatu	equ	0xFFB
  5477                           pclath	equ	0xFFA
  5478                           tblptru	equ	0xFF8
  5479                           tblptrh	equ	0xFF7
  5480                           tblptrl	equ	0xFF6
  5481                           tablat	equ	0xFF5
  5482                           prodh	equ	0xFF4
  5483                           prodl	equ	0xFF3
  5484                           intcon	equ	0xFF2
  5485                           postinc0	equ	0xFEE
  5486                           fsr0h	equ	0xFEA
  5487                           fsr0l	equ	0xFE9
  5488                           wreg	equ	0xFE8
  5489                           indf1	equ	0xFE7
  5490                           fsr1h	equ	0xFE2
  5491                           fsr1l	equ	0xFE1
  5492                           bsr	equ	0xFE0
  5493                           indf2	equ	0xFDF
  5494                           fsr2h	equ	0xFDA
  5495                           fsr2l	equ	0xFD9
  5496                           status	equ	0xFD8
  5497                           
  5498 ;; *************** function _ToMainHigh_sendmsg *****************
  5499 ;; Defined at:
  5500 ;;		line 126 in file "../src/messages.c"
  5501 ;; Parameters:    Size  Location     Type
  5502 ;;  length          1    wreg     unsigned char 
  5503 ;;  msgtype         1    5[BANK0 ] unsigned char 
  5504 ;;  data            2    6[BANK0 ] PTR void 
  5505 ;;		 -> NULL(0), i2c_int_handler@error_buf(3), main@ic(40), 
  5506 ;; Auto vars:     Size  Location     Type
  5507 ;;  length          1    8[BANK0 ] unsigned char 
  5508 ;; Return value:  Size  Location     Type
  5509 ;;                  1    wreg      char 
  5510 ;; Registers used:
  5511 ;;		wreg, fsr1l, fsr1h, fsr2l, fsr2h, status,2, status,0, prodl, prodh, cstack
  5512 ;; Tracked objects:
  5513 ;;		On entry : 0/0
  5514 ;;		On exit  : 0/0
  5515 ;;		Unchanged: 0/0
  5516 ;; Data sizes:     COMRAM   BANK0   BANK1   BANK2   BANK3
  5517 ;;      Params:         0       3       0       0       0
  5518 ;;      Locals:         0       1       0       0       0
  5519 ;;      Temps:          0       0       0       0       0
  5520 ;;      Totals:         0       4       0       0       0
  5521 ;;Total ram usage:        4 bytes
  5522 ;; Hardware stack levels used:    1
  5523 ;; Hardware stack levels required when called:    2
  5524 ;; This function calls:
  5525 ;;		i2_send_msg
  5526 ;; This function is called by:
  5527 ;;		_i2c_int_handler
  5528 ;; This function uses a non-reentrant model
  5529 ;;
  5530                           
  5531                           	psect	text34
  5532  0012CE                     __ptext34:
  5533                           	opt stack 0
  5534  0012CE                     _ToMainHigh_sendmsg:
  5535                           	opt stack 17
  5536                           
  5537                           ;incstack = 0
  5538                           ;ToMainHigh_sendmsg@length stored from wreg
  5539  0012CE  CFE8 F0BE          	movff	wreg,ToMainHigh_sendmsg@length
  5540                           
  5541                           ;messages.c: 132: return (send_msg(&ToMainHigh_MQ, length, msgtype, data));
  5542                           ;	Return value of _ToMainHigh_sendmsg is never used
  5543  0012D2  0101               	movlb	1	; () banked
  5544  0012D4  0E01               	movlw	high _ToMainHigh_MQ
  5545  0012D6  6E3A               	movwf	i2send_msg@qptr+1,c
  5546  0012D8  0101               	movlb	1	; () banked
  5547  0012DA  0E6C               	movlw	low _ToMainHigh_MQ
  5548  0012DC  6E39               	movwf	i2send_msg@qptr,c
  5549  0012DE  C0BE  F03B         	movff	ToMainHigh_sendmsg@length,i2send_msg@length
  5550  0012E2  C0BB  F03C         	movff	ToMainHigh_sendmsg@msgtype,i2send_msg@msgtype
  5551  0012E6  0100               	movlb	0	; () banked
  5552  0012E8  C0BD  F03E         	movff	ToMainHigh_sendmsg@data+1,i2send_msg@data+1
  5553  0012EC  0100               	movlb	0	; () banked
  5554  0012EE  C0BC  F03D         	movff	ToMainHigh_sendmsg@data,i2send_msg@data
  5555  0012F2  ECAF  F004         	call	i2_send_msg	;wreg free
  5556  0012F6  0012               	return	
  5557  0012F8                     __end_of_ToMainHigh_sendmsg:
  5558                           	opt stack 0
  5559                           pclatu	equ	0xFFB
  5560                           pclath	equ	0xFFA
  5561                           tblptru	equ	0xFF8
  5562                           tblptrh	equ	0xFF7
  5563                           tblptrl	equ	0xFF6
  5564                           tablat	equ	0xFF5
  5565                           prodh	equ	0xFF4
  5566                           prodl	equ	0xFF3
  5567                           intcon	equ	0xFF2
  5568                           postinc0	equ	0xFEE
  5569                           fsr0h	equ	0xFEA
  5570                           fsr0l	equ	0xFE9
  5571                           wreg	equ	0xFE8
  5572                           indf1	equ	0xFE7
  5573                           fsr1h	equ	0xFE2
  5574                           fsr1l	equ	0xFE1
  5575                           bsr	equ	0xFE0
  5576                           indf2	equ	0xFDF
  5577                           fsr2h	equ	0xFDA
  5578                           fsr2l	equ	0xFD9
  5579                           status	equ	0xFD8
  5580                           
  5581 ;; *************** function i2_send_msg *****************
  5582 ;; Defined at:
  5583 ;;		line 24 in file "../src/messages.c"
  5584 ;; Parameters:    Size  Location     Type
  5585 ;;  qptr            2   56[COMRAM] PTR struct __msg_queue
  5586 ;;		 -> FromMainHigh_MQ(54), FromMainLow_MQ(54), ToMainHigh_MQ(54), ToMainLow_MQ(54), 
  5587 ;;  length          1   58[COMRAM] unsigned char 
  5588 ;;  msgtype         1   59[COMRAM] unsigned char 
  5589 ;;  data            2   60[COMRAM] PTR void 
  5590 ;;		 -> timer0_lthread@val(2), NULL(0), i2c_int_handler@error_buf(3), main@ic(40), 
  5591 ;;		 -> main@uc(5), 
  5592 ;; Auto vars:     Size  Location     Type
  5593 ;;  send_msg        2    3[BANK0 ] PTR struct __msg
  5594 ;;		 -> FromMainLow_MQ.queue(52), FromMainHigh_MQ.queue(52), ToMainHigh_MQ.queue(52), ToMainLow_MQ.queue(52), 
  5595 ;;		 -> FromMainHigh_MQ(54), FromMainLow_MQ(54), ToMainHigh_MQ(54), ToMainLow_MQ(54), 
  5596 ;;  send_msg        2    0[BANK0 ] unsigned int 
  5597 ;;  send_msg        1    2[BANK0 ] unsigned char 
  5598 ;; Return value:  Size  Location     Type
  5599 ;;                  1    wreg      char 
  5600 ;; Registers used:
  5601 ;;		wreg, fsr1l, fsr1h, fsr2l, fsr2h, status,2, status,0, prodl, prodh, cstack
  5602 ;; Tracked objects:
  5603 ;;		On entry : 0/0
  5604 ;;		On exit  : 0/0
  5605 ;;		Unchanged: 0/0
  5606 ;; Data sizes:     COMRAM   BANK0   BANK1   BANK2   BANK3
  5607 ;;      Params:         6       0       0       0       0
  5608 ;;      Locals:         0       5       0       0       0
  5609 ;;      Temps:          1       0       0       0       0
  5610 ;;      Totals:         7       5       0       0       0
  5611 ;;Total ram usage:       12 bytes
  5612 ;; Hardware stack levels used:    1
  5613 ;; Hardware stack levels required when called:    1
  5614 ;; This function calls:
  5615 ;;		i2_memcpy
  5616 ;; This function is called by:
  5617 ;;		_ToMainHigh_sendmsg
  5618 ;; This function uses a non-reentrant model
  5619 ;;
  5620                           
  5621                           	psect	text35
  5622  00095E                     __ptext35:
  5623                           	opt stack 0
  5624  00095E                     i2_send_msg:
  5625                           	opt stack 17
  5626                           
  5627                           ;messages.c: 25: unsigned char slot;
  5628                           ;messages.c: 27: msg *qmsg;
  5629                           ;messages.c: 28: size_t tlength = length;
  5630                           
  5631                           ;incstack = 0
  5632  00095E  0100               	movlb	0	; () banked
  5633  000960  C03B  F0B6         	movff	i2send_msg@length,i2send_msg@tlength
  5634  000964  0100               	movlb	0	; () banked
  5635  000966  0100               	movlb	0	; () banked
  5636  000968  6BB7               	clrf	(i2send_msg@tlength+1)& (0+255),b
  5637                           
  5638                           ; BSR set to: 0
  5639                           ;messages.c: 38: slot = qptr->cur_write_ind;
  5640  00096A  EE20 F034          	lfsr	2,52
  5641  00096E  5039               	movf	i2send_msg@qptr,w,c
  5642  000970  26D9               	addwf	fsr2l,f,c
  5643  000972  503A               	movf	i2send_msg@qptr+1,w,c
  5644  000974  22DA               	addwfc	fsr2h,f,c
  5645  000976  50DF               	movf	indf2,w,c
  5646  000978  0100               	movlb	0	; () banked
  5647  00097A  0100               	movlb	0	; () banked
  5648  00097C  6FB8               	movwf	i2send_msg@slot& (0+255),b
  5649                           
  5650                           ; BSR set to: 0
  5651                           ;messages.c: 39: qmsg = &(qptr->queue[slot]);
  5652  00097E  0100               	movlb	0	; () banked
  5653  000980  0100               	movlb	0	; () banked
  5654  000982  51B8               	movf	i2send_msg@slot& (0+255),w,b
  5655  000984  0D0D               	mullw	13
  5656  000986  50F3               	movf	prodl,w,c
  5657  000988  2439               	addwf	i2send_msg@qptr,w,c
  5658  00098A  0100               	movlb	0	; () banked
  5659  00098C  0100               	movlb	0	; () banked
  5660  00098E  6FB9               	movwf	i2send_msg@qmsg& (0+255),b
  5661  000990  50F4               	movf	prodh,w,c
  5662  000992  203A               	addwfc	i2send_msg@qptr+1,w,c
  5663  000994  0100               	movlb	0	; () banked
  5664  000996  6FBA               	movwf	(i2send_msg@qmsg+1)& (0+255),b
  5665                           
  5666                           ; BSR set to: 0
  5667                           ;messages.c: 41: if (qmsg->full != 0) {
  5668  000998  C0B9  FFD9         	movff	i2send_msg@qmsg,fsr2l
  5669  00099C  C0BA  FFDA         	movff	i2send_msg@qmsg+1,fsr2h
  5670  0009A0  50DF               	movf	indf2,w,c
  5671  0009A2  B4D8               	btfsc	status,2,c
  5672  0009A4  D002               	goto	i2l2895
  5673                           
  5674                           ; BSR set to: 0
  5675                           ;messages.c: 42: return (-1);
  5676  0009A6  0EFF               	movlw	255
  5677  0009A8  0012               	return	
  5678  0009AA                     i2l2895:
  5679                           
  5680                           ; BSR set to: 0
  5681                           ;messages.c: 43: }
  5682                           ;messages.c: 46: qmsg->length = length;
  5683  0009AA  0100               	movlb	0	; () banked
  5684  0009AC  EE20 F001          	lfsr	2,1
  5685  0009B0  0100               	movlb	0	; () banked
  5686  0009B2  51B9               	movf	i2send_msg@qmsg& (0+255),w,b
  5687  0009B4  26D9               	addwf	fsr2l,f,c
  5688  0009B6  0100               	movlb	0	; () banked
  5689  0009B8  51BA               	movf	(i2send_msg@qmsg+1)& (0+255),w,b
  5690  0009BA  22DA               	addwfc	fsr2h,f,c
  5691  0009BC  C03B  FFDF         	movff	i2send_msg@length,indf2
  5692                           
  5693                           ;messages.c: 47: qmsg->msgtype = msgtype;
  5694  0009C0  0100               	movlb	0	; () banked
  5695  0009C2  EE20 F002          	lfsr	2,2
  5696  0009C6  0100               	movlb	0	; () banked
  5697  0009C8  51B9               	movf	i2send_msg@qmsg& (0+255),w,b
  5698  0009CA  26D9               	addwf	fsr2l,f,c
  5699  0009CC  0100               	movlb	0	; () banked
  5700  0009CE  51BA               	movf	(i2send_msg@qmsg+1)& (0+255),w,b
  5701  0009D0  22DA               	addwfc	fsr2h,f,c
  5702  0009D2  C03C  FFDF         	movff	i2send_msg@msgtype,indf2
  5703                           
  5704                           ; BSR set to: 0
  5705                           ;messages.c: 55: memcpy(qmsg->data, data, tlength);
  5706  0009D6  0E03               	movlw	3
  5707  0009D8  0100               	movlb	0	; () banked
  5708  0009DA  0100               	movlb	0	; () banked
  5709  0009DC  25B9               	addwf	i2send_msg@qmsg& (0+255),w,b
  5710  0009DE  6E2F               	movwf	i2memcpy@d1,c
  5711  0009E0  0E00               	movlw	0
  5712  0009E2  0100               	movlb	0	; () banked
  5713  0009E4  0100               	movlb	0	; () banked
  5714  0009E6  21BA               	addwfc	(i2send_msg@qmsg+1)& (0+255),w,b
  5715  0009E8  6E30               	movwf	i2memcpy@d1+1,c
  5716  0009EA  C03E  F032         	movff	i2send_msg@data+1,i2memcpy@s1+1
  5717  0009EE  C03D  F031         	movff	i2send_msg@data,i2memcpy@s1
  5718  0009F2  C0B6  F033         	movff	i2send_msg@tlength,i2memcpy@n
  5719  0009F6  C0B7  F034         	movff	i2send_msg@tlength+1,i2memcpy@n+1
  5720  0009FA  ECCC  F008         	call	i2_memcpy	;wreg free
  5721                           
  5722                           ;messages.c: 56: qptr->cur_write_ind = (qptr->cur_write_ind + 1) % 4;
  5723  0009FE  EE20 F034          	lfsr	2,52
  5724  000A02  5039               	movf	i2send_msg@qptr,w,c
  5725  000A04  26D9               	addwf	fsr2l,f,c
  5726  000A06  503A               	movf	i2send_msg@qptr+1,w,c
  5727  000A08  22DA               	addwfc	fsr2h,f,c
  5728  000A0A  EE10 F034          	lfsr	1,52
  5729  000A0E  5039               	movf	i2send_msg@qptr,w,c
  5730  000A10  26E1               	addwf	fsr1l,f,c
  5731  000A12  503A               	movf	i2send_msg@qptr+1,w,c
  5732  000A14  22E2               	addwfc	fsr1h,f,c
  5733  000A16  50E7               	movf	indf1,w,c
  5734  000A18  6E3F               	movwf	??i2_send_msg& (0+255),c
  5735  000A1A  283F               	incf	??i2_send_msg,w,c
  5736  000A1C  0B03               	andlw	3
  5737  000A1E  6EDF               	movwf	indf2,c
  5738                           
  5739                           ;messages.c: 59: qmsg->full = 1;
  5740  000A20  C0B9  FFD9         	movff	i2send_msg@qmsg,fsr2l
  5741  000A24  C0BA  FFDA         	movff	i2send_msg@qmsg+1,fsr2h
  5742  000A28  0E01               	movlw	1
  5743  000A2A  6EDF               	movwf	indf2,c
  5744                           
  5745                           ;messages.c: 60: return (1);
  5746  000A2C  0E01               	movlw	1
  5747  000A2E  0012               	return	
  5748  000A30                     __end_ofi2_send_msg:
  5749                           	opt stack 0
  5750                           pclatu	equ	0xFFB
  5751                           pclath	equ	0xFFA
  5752                           tblptru	equ	0xFF8
  5753                           tblptrh	equ	0xFF7
  5754                           tblptrl	equ	0xFF6
  5755                           tablat	equ	0xFF5
  5756                           prodh	equ	0xFF4
  5757                           prodl	equ	0xFF3
  5758                           intcon	equ	0xFF2
  5759                           postinc0	equ	0xFEE
  5760                           fsr0h	equ	0xFEA
  5761                           fsr0l	equ	0xFE9
  5762                           wreg	equ	0xFE8
  5763                           indf1	equ	0xFE7
  5764                           fsr1h	equ	0xFE2
  5765                           fsr1l	equ	0xFE1
  5766                           bsr	equ	0xFE0
  5767                           indf2	equ	0xFDF
  5768                           fsr2h	equ	0xFDA
  5769                           fsr2l	equ	0xFD9
  5770                           status	equ	0xFD8
  5771                           
  5772 ;; *************** function i2_memcpy *****************
  5773 ;; Defined at:
  5774 ;;		line 11 in file "/Applications/microchip/xc8/v1.30/sources/common/memcpy.c"
  5775 ;; Parameters:    Size  Location     Type
  5776 ;;  d1              2   46[COMRAM] PTR void 
  5777 ;;		 -> FromMainLow_MQ.queue(52), FromMainHigh_MQ.queue(52), ToMainHigh_MQ.queue(52), ToMainLow_MQ.queue(52), 
  5778 ;;		 -> FromMainHigh_MQ(54), FromMainLow_MQ(54), ToMainHigh_MQ(54), ToMainLow_MQ(54), 
  5779 ;;		 -> main@msgbuffer(11), 
  5780 ;;  s1              2   48[COMRAM] PTR const void 
  5781 ;;		 -> ToMainLow_MQ.data(10), ToMainHigh_MQ.data(10), FromMainLow_MQ.data(10), FromMainHigh_MQ.data(10), 
  5782 ;;		 -> ToMainLow_MQ.queue.data(10), ToMainHigh_MQ.queue.data(10), FromMainHigh_MQ.queue.data(10), FromMainLow_MQ.queue.
      +data(10), 
  5783 ;;		 -> timer0_lthread@val(2), NULL(0), i2c_int_handler@error_buf(3), FromMainHigh_MQ(54), 
  5784 ;;		 -> FromMainLow_MQ(54), ToMainHigh_MQ(54), ToMainLow_MQ(54), main@ic(40), 
  5785 ;;		 -> main@uc(5), 
  5786 ;;  n               2   50[COMRAM] unsigned int 
  5787 ;; Auto vars:     Size  Location     Type
  5788 ;;  memcpy          2   54[COMRAM] PTR const unsigned char 
  5789 ;;		 -> ToMainLow_MQ.data(10), ToMainHigh_MQ.data(10), FromMainLow_MQ.data(10), FromMainHigh_MQ.data(10), 
  5790 ;;		 -> ToMainLow_MQ.queue.data(10), ToMainHigh_MQ.queue.data(10), FromMainHigh_MQ.queue.data(10), FromMainLow_MQ.queue.
      +data(10), 
  5791 ;;		 -> timer0_lthread@val(2), NULL(0), i2c_int_handler@error_buf(3), FromMainHigh_MQ(54), 
  5792 ;;		 -> FromMainLow_MQ(54), ToMainHigh_MQ(54), ToMainLow_MQ(54), main@ic(40), 
  5793 ;;		 -> main@uc(5), 
  5794 ;;  memcpy          2   52[COMRAM] PTR unsigned char 
  5795 ;;		 -> FromMainLow_MQ.queue(52), FromMainHigh_MQ.queue(52), ToMainHigh_MQ.queue(52), ToMainLow_MQ.queue(52), 
  5796 ;;		 -> FromMainHigh_MQ(54), FromMainLow_MQ(54), ToMainHigh_MQ(54), ToMainLow_MQ(54), 
  5797 ;;		 -> main@msgbuffer(11), 
  5798 ;; Return value:  Size  Location     Type
  5799 ;;                  2   46[COMRAM] PTR void 
  5800 ;; Registers used:
  5801 ;;		wreg, fsr1l, fsr1h, fsr2l, fsr2h, status,2, status,0
  5802 ;; Tracked objects:
  5803 ;;		On entry : 0/0
  5804 ;;		On exit  : 0/0
  5805 ;;		Unchanged: 0/0
  5806 ;; Data sizes:     COMRAM   BANK0   BANK1   BANK2   BANK3
  5807 ;;      Params:         6       0       0       0       0
  5808 ;;      Locals:         4       0       0       0       0
  5809 ;;      Temps:          0       0       0       0       0
  5810 ;;      Totals:        10       0       0       0       0
  5811 ;;Total ram usage:       10 bytes
  5812 ;; Hardware stack levels used:    1
  5813 ;; This function calls:
  5814 ;;		Nothing
  5815 ;; This function is called by:
  5816 ;;		i2_send_msg
  5817 ;; This function uses a non-reentrant model
  5818 ;;
  5819                           
  5820                           	psect	text36
  5821  001198                     __ptext36:
  5822                           	opt stack 0
  5823  001198                     i2_memcpy:
  5824                           	opt stack 17
  5825                           
  5826                           ;incstack = 0
  5827  001198  C032  F038         	movff	i2memcpy@s1+1,i2memcpy@s+1
  5828  00119C  C031  F037         	movff	i2memcpy@s1,i2memcpy@s
  5829  0011A0  C030  F036         	movff	i2memcpy@d1+1,i2memcpy@d+1
  5830  0011A4  C02F  F035         	movff	i2memcpy@d1,i2memcpy@d
  5831  0011A8  D00E               	goto	i2l2915
  5832  0011AA                     i2l2909:
  5833  0011AA  C037  FFD9         	movff	i2memcpy@s,fsr2l
  5834  0011AE  C038  FFDA         	movff	i2memcpy@s+1,fsr2h
  5835  0011B2  C035  FFE1         	movff	i2memcpy@d,fsr1l
  5836  0011B6  C036  FFE2         	movff	i2memcpy@d+1,fsr1h
  5837  0011BA  CFDF FFE7          	movff	indf2,indf1
  5838  0011BE  4A37               	infsnz	i2memcpy@s,f,c
  5839  0011C0  2A38               	incf	i2memcpy@s+1,f,c
  5840  0011C2  4A35               	infsnz	i2memcpy@d,f,c
  5841  0011C4  2A36               	incf	i2memcpy@d+1,f,c
  5842  0011C6                     i2l2915:
  5843  0011C6  0633               	decf	i2memcpy@n,f,c
  5844  0011C8  A0D8               	btfss	status,0,c
  5845  0011CA  0634               	decf	i2memcpy@n+1,f,c
  5846  0011CC  2833               	incf	i2memcpy@n& (0+255),w,c
  5847  0011CE  B4D8               	btfsc	status,2,c
  5848  0011D0  2834               	incf	(i2memcpy@n+1)& (0+255),w,c
  5849  0011D2  B4D8               	btfsc	status,2,c
  5850                           
  5851                           ;	Return value of i2_memcpy is never used
  5852  0011D4  0012               	return	
  5853  0011D6  D7E9               	goto	i2l2909
  5854  0011D8                     __end_ofi2_memcpy:
  5855                           	opt stack 0
  5856                           pclatu	equ	0xFFB
  5857                           pclath	equ	0xFFA
  5858                           tblptru	equ	0xFF8
  5859                           tblptrh	equ	0xFF7
  5860                           tblptrl	equ	0xFF6
  5861                           tablat	equ	0xFF5
  5862                           prodh	equ	0xFF4
  5863                           prodl	equ	0xFF3
  5864                           intcon	equ	0xFF2
  5865                           postinc0	equ	0xFEE
  5866                           fsr0h	equ	0xFEA
  5867                           fsr0l	equ	0xFE9
  5868                           wreg	equ	0xFE8
  5869                           indf1	equ	0xFE7
  5870                           fsr1h	equ	0xFE2
  5871                           fsr1l	equ	0xFE1
  5872                           bsr	equ	0xFE0
  5873                           indf2	equ	0xFDF
  5874                           fsr2h	equ	0xFDA
  5875                           fsr2l	equ	0xFD9
  5876                           status	equ	0xFD8
  5877                           
  5878 ;; *************** function _adc_int_handler *****************
  5879 ;; Defined at:
  5880 ;;		line 56 in file "../src/user_interrupts.c"
  5881 ;; Parameters:    Size  Location     Type
  5882 ;;		None
  5883 ;; Auto vars:     Size  Location     Type
  5884 ;;  result          2   51[COMRAM] unsigned int 
  5885 ;; Return value:  Size  Location     Type
  5886 ;;		None               void
  5887 ;; Registers used:
  5888 ;;		wreg, fsr1l, fsr1h, fsr2l, fsr2h, status,2, status,0, prodl, prodh, cstack
  5889 ;; Tracked objects:
  5890 ;;		On entry : 0/0
  5891 ;;		On exit  : 0/0
  5892 ;;		Unchanged: 0/0
  5893 ;; Data sizes:     COMRAM   BANK0   BANK1   BANK2   BANK3
  5894 ;;      Params:         0       0       0       0       0
  5895 ;;      Locals:         2       0       0       0       0
  5896 ;;      Temps:          2       0       0       0       0
  5897 ;;      Totals:         4       0       0       0       0
  5898 ;;Total ram usage:        4 bytes
  5899 ;; Hardware stack levels used:    1
  5900 ;; Hardware stack levels required when called:    1
  5901 ;; This function calls:
  5902 ;;		_Handle_i2c_data_save
  5903 ;;		_ReadADC
  5904 ;; This function is called by:
  5905 ;;		_InterruptHandlerHigh
  5906 ;; This function uses a non-reentrant model
  5907 ;;
  5908                           
  5909                           	psect	text37
  5910  0011D8                     __ptext37:
  5911                           	opt stack 0
  5912  0011D8                     _adc_int_handler:
  5913                           	opt stack 19
  5914                           
  5915                           ;user_interrupts.c: 58: unsigned int result;
  5916                           ;user_interrupts.c: 59: result = ReadADC();
  5917                           
  5918                           ;incstack = 0
  5919  0011D8  EC11  F00A         	call	_ReadADC	;wreg free
  5920  0011DC  C02F  F034         	movff	?_ReadADC,adc_int_handler@result
  5921  0011E0  C030  F035         	movff	?_ReadADC+1,adc_int_handler@result+1
  5922                           
  5923                           ;user_interrupts.c: 60: result = result /4;
  5924  0011E4  C034  F032         	movff	adc_int_handler@result,??_adc_int_handler
  5925  0011E8  C035  F033         	movff	adc_int_handler@result+1,??_adc_int_handler+1
  5926  0011EC  90D8               	bcf	status,0,c
  5927  0011EE  3233               	rrcf	??_adc_int_handler+1,f,c
  5928  0011F0  3232               	rrcf	??_adc_int_handler,f,c
  5929  0011F2  90D8               	bcf	status,0,c
  5930  0011F4  3233               	rrcf	??_adc_int_handler+1,f,c
  5931  0011F6  3232               	rrcf	??_adc_int_handler,f,c
  5932  0011F8  C032  F034         	movff	??_adc_int_handler,adc_int_handler@result
  5933  0011FC  C033  F035         	movff	??_adc_int_handler+1,adc_int_handler@result+1
  5934                           
  5935                           ;user_interrupts.c: 61: Handle_i2c_data_save(1,&result);
  5936  001200  0E00               	movlw	high adc_int_handler@result
  5937  001202  6E30               	movwf	Handle_i2c_data_save@msg+1,c
  5938  001204  0E34               	movlw	low adc_int_handler@result
  5939  001206  6E2F               	movwf	Handle_i2c_data_save@msg,c
  5940  001208  0E01               	movlw	1
  5941  00120A  EC69  F008         	call	_Handle_i2c_data_save
  5942  00120E  0012               	return	
  5943  001210                     __end_of_adc_int_handler:
  5944                           	opt stack 0
  5945                           pclatu	equ	0xFFB
  5946                           pclath	equ	0xFFA
  5947                           tblptru	equ	0xFF8
  5948                           tblptrh	equ	0xFF7
  5949                           tblptrl	equ	0xFF6
  5950                           tablat	equ	0xFF5
  5951                           prodh	equ	0xFF4
  5952                           prodl	equ	0xFF3
  5953                           intcon	equ	0xFF2
  5954                           postinc0	equ	0xFEE
  5955                           fsr0h	equ	0xFEA
  5956                           fsr0l	equ	0xFE9
  5957                           wreg	equ	0xFE8
  5958                           indf1	equ	0xFE7
  5959                           fsr1h	equ	0xFE2
  5960                           fsr1l	equ	0xFE1
  5961                           bsr	equ	0xFE0
  5962                           indf2	equ	0xFDF
  5963                           fsr2h	equ	0xFDA
  5964                           fsr2l	equ	0xFD9
  5965                           status	equ	0xFD8
  5966                           
  5967 ;; *************** function _ReadADC *****************
  5968 ;; Defined at:
  5969 ;;		line 24 in file "/Applications/microchip/xc8/v1.30/sources/pic18/plib/ADC/adcread.c"
  5970 ;; Parameters:    Size  Location     Type
  5971 ;;		None
  5972 ;; Auto vars:     Size  Location     Type
  5973 ;;		None
  5974 ;; Return value:  Size  Location     Type
  5975 ;;                  2   46[COMRAM] int 
  5976 ;; Registers used:
  5977 ;;		wreg, status,2
  5978 ;; Tracked objects:
  5979 ;;		On entry : 0/0
  5980 ;;		On exit  : 0/0
  5981 ;;		Unchanged: 0/0
  5982 ;; Data sizes:     COMRAM   BANK0   BANK1   BANK2   BANK3
  5983 ;;      Params:         2       0       0       0       0
  5984 ;;      Locals:         0       0       0       0       0
  5985 ;;      Temps:          0       0       0       0       0
  5986 ;;      Totals:         2       0       0       0       0
  5987 ;;Total ram usage:        2 bytes
  5988 ;; Hardware stack levels used:    1
  5989 ;; This function calls:
  5990 ;;		Nothing
  5991 ;; This function is called by:
  5992 ;;		_adc_int_handler
  5993 ;; This function uses a non-reentrant model
  5994 ;;
  5995                           
  5996                           	psect	text38
  5997  001422                     __ptext38:
  5998                           	opt stack 0
  5999  001422                     _ReadADC:
  6000                           	opt stack 19
  6001                           
  6002                           ;incstack = 0
  6003  001422  50C4               	movf	4036,w,c	;volatile
  6004  001424  6E30               	movwf	?_ReadADC+1,c
  6005  001426  50C3               	movf	4035,w,c	;volatile
  6006  001428  6E2F               	movwf	?_ReadADC,c
  6007  00142A  0012               	return	
  6008  00142C                     __end_of_ReadADC:
  6009                           	opt stack 0
  6010                           pclatu	equ	0xFFB
  6011                           pclath	equ	0xFFA
  6012                           tblptru	equ	0xFF8
  6013                           tblptrh	equ	0xFF7
  6014                           tblptrl	equ	0xFF6
  6015                           tablat	equ	0xFF5
  6016                           prodh	equ	0xFF4
  6017                           prodl	equ	0xFF3
  6018                           intcon	equ	0xFF2
  6019                           postinc0	equ	0xFEE
  6020                           fsr0h	equ	0xFEA
  6021                           fsr0l	equ	0xFE9
  6022                           wreg	equ	0xFE8
  6023                           indf1	equ	0xFE7
  6024                           fsr1h	equ	0xFE2
  6025                           fsr1l	equ	0xFE1
  6026                           bsr	equ	0xFE0
  6027                           indf2	equ	0xFDF
  6028                           fsr2h	equ	0xFDA
  6029                           fsr2l	equ	0xFD9
  6030                           status	equ	0xFD8
  6031                           
  6032 ;; *************** function _Handle_i2c_data_save *****************
  6033 ;; Defined at:
  6034 ;;		line 56 in file "../src/my_i2c.c"
  6035 ;; Parameters:    Size  Location     Type
  6036 ;;  length          1    wreg     unsigned char 
  6037 ;;  msg             2   46[COMRAM] PTR unsigned char 
  6038 ;;		 -> adc_int_handler@result(2), 
  6039 ;; Auto vars:     Size  Location     Type
  6040 ;;  length          1    0[COMRAM] unsigned char 
  6041 ;; Return value:  Size  Location     Type
  6042 ;;		None               void
  6043 ;; Registers used:
  6044 ;;		wreg, fsr1l, fsr1h, fsr2l, fsr2h, status,2, status,0, prodl, prodh
  6045 ;; Tracked objects:
  6046 ;;		On entry : 0/0
  6047 ;;		On exit  : 0/0
  6048 ;;		Unchanged: 0/0
  6049 ;; Data sizes:     COMRAM   BANK0   BANK1   BANK2   BANK3
  6050 ;;      Params:         2       0       0       0       0
  6051 ;;      Locals:         0       0       0       0       0
  6052 ;;      Temps:          1       0       0       0       0
  6053 ;;      Totals:         3       0       0       0       0
  6054 ;;Total ram usage:        3 bytes
  6055 ;; Hardware stack levels used:    1
  6056 ;; This function calls:
  6057 ;;		Nothing
  6058 ;; This function is called by:
  6059 ;;		_adc_int_handler
  6060 ;; This function uses a non-reentrant model
  6061 ;;
  6062                           
  6063                           	psect	text39
  6064  0010D2                     __ptext39:
  6065                           	opt stack 0
  6066  0010D2                     _Handle_i2c_data_save:
  6067                           	opt stack 19
  6068                           
  6069                           ;my_i2c.c: 60: {
  6070                           ;my_i2c.c: 61: ic_ptr->sendBuf[ic_ptr->sendBufLen] = *msg;
  6071                           
  6072                           ;incstack = 0
  6073  0010D2  C02F  FFD9         	movff	Handle_i2c_data_save@msg,fsr2l
  6074  0010D6  C030  FFDA         	movff	Handle_i2c_data_save@msg+1,fsr2h
  6075  0010DA  EE10 F026          	lfsr	1,38
  6076  0010DE  504C               	movf	_ic_ptr,w,c
  6077  0010E0  26E1               	addwf	fsr1l,f,c
  6078  0010E2  504D               	movf	_ic_ptr+1,w,c
  6079  0010E4  22E2               	addwfc	fsr1h,f,c
  6080  0010E6  50E7               	movf	indf1,w,c
  6081  0010E8  6E31               	movwf	??_Handle_i2c_data_save& (0+255),c
  6082  0010EA  5031               	movf	??_Handle_i2c_data_save,w,c
  6083  0010EC  0D01               	mullw	1
  6084  0010EE  0E1C               	movlw	28
  6085  0010F0  26F3               	addwf	prodl,f,c
  6086  0010F2  0E00               	movlw	0
  6087  0010F4  22F4               	addwfc	prodh,f,c
  6088  0010F6  50F3               	movf	prodl,w,c
  6089  0010F8  244C               	addwf	_ic_ptr,w,c
  6090  0010FA  6EE1               	movwf	fsr1l,c
  6091  0010FC  50F4               	movf	prodh,w,c
  6092  0010FE  204D               	addwfc	_ic_ptr+1,w,c
  6093  001100  6EE2               	movwf	fsr1h,c
  6094  001102  CFDF FFE7          	movff	indf2,indf1
  6095                           
  6096                           ;my_i2c.c: 62: ic_ptr->sendBufLen++;
  6097  001106  EE20 F026          	lfsr	2,38
  6098  00110A  504C               	movf	_ic_ptr,w,c
  6099  00110C  26D9               	addwf	fsr2l,f,c
  6100  00110E  504D               	movf	_ic_ptr+1,w,c
  6101  001110  22DA               	addwfc	fsr2h,f,c
  6102  001112  2ADF               	incf	indf2,f,c
  6103  001114  0012               	return	
  6104  001116                     __end_of_Handle_i2c_data_save:
  6105                           	opt stack 0
  6106                           pclatu	equ	0xFFB
  6107                           pclath	equ	0xFFA
  6108                           tblptru	equ	0xFF8
  6109                           tblptrh	equ	0xFF7
  6110                           tblptrl	equ	0xFF6
  6111                           tablat	equ	0xFF5
  6112                           prodh	equ	0xFF4
  6113                           prodl	equ	0xFF3
  6114                           intcon	equ	0xFF2
  6115                           postinc0	equ	0xFEE
  6116                           fsr0h	equ	0xFEA
  6117                           fsr0l	equ	0xFE9
  6118                           wreg	equ	0xFE8
  6119                           indf1	equ	0xFE7
  6120                           fsr1h	equ	0xFE2
  6121                           fsr1l	equ	0xFE1
  6122                           bsr	equ	0xFE0
  6123                           indf2	equ	0xFDF
  6124                           fsr2h	equ	0xFDA
  6125                           fsr2l	equ	0xFD9
  6126                           status	equ	0xFD8
  6127                           
  6128 ;; *************** function _SleepIfOkay *****************
  6129 ;; Defined at:
  6130 ;;		line 228 in file "../src/messages.c"
  6131 ;; Parameters:    Size  Location     Type
  6132 ;;		None
  6133 ;; Auto vars:     Size  Location     Type
  6134 ;;		None
  6135 ;; Return value:  Size  Location     Type
  6136 ;;		None               void
  6137 ;; Registers used:
  6138 ;;		wreg, fsr2l, fsr2h, status,2, status,0, prodl, prodh, cstack
  6139 ;; Tracked objects:
  6140 ;;		On entry : 0/0
  6141 ;;		On exit  : 0/0
  6142 ;;		Unchanged: 0/0
  6143 ;; Data sizes:     COMRAM   BANK0   BANK1   BANK2   BANK3
  6144 ;;      Params:         0       0       0       0       0
  6145 ;;      Locals:         0       0       0       0       0
  6146 ;;      Temps:          0       0       0       0       0
  6147 ;;      Totals:         0       0       0       0       0
  6148 ;;Total ram usage:        0 bytes
  6149 ;; Hardware stack levels used:    1
  6150 ;; Hardware stack levels required when called:    2
  6151 ;; This function calls:
  6152 ;;		_enter_sleep_mode
  6153 ;;		i2_check_msg
  6154 ;;		i2_in_high_int
  6155 ;;		i2_in_low_int
  6156 ;; This function is called by:
  6157 ;;		_InterruptHandlerHigh
  6158 ;; This function uses a non-reentrant model
  6159 ;;
  6160                           
  6161                           	psect	text40
  6162  000FB4                     __ptext40:
  6163                           	opt stack 0
  6164  000FB4                     _SleepIfOkay:
  6165                           	opt stack 18
  6166                           
  6167                           ;messages.c: 230: if (MQ_Main_Willing_to_block == 0) {
  6168                           
  6169                           ;incstack = 0
  6170  000FB4  664A               	tstfsz	_MQ_Main_Willing_to_block,c
  6171  000FB6  D001               	goto	i2l2081
  6172  000FB8  0012               	return	
  6173  000FBA                     i2l2081:
  6174                           
  6175                           ;messages.c: 232: }
  6176                           ;messages.c: 235: if (in_low_int()) {
  6177  000FBA  EC3B  F009         	call	i2_in_low_int	;wreg free
  6178  000FBE  5032               	movf	?i2_in_low_int+1,w,c
  6179  000FC0  1031               	iorwf	?i2_in_low_int,w,c
  6180  000FC2  A4D8               	btfss	status,2,c
  6181  000FC4  0012               	return	
  6182                           
  6183                           ;messages.c: 237: }
  6184                           ;messages.c: 240: if (!in_high_int()) {
  6185                           
  6186                           ;messages.c: 236: return;
  6187  000FC6  EC0B  F00A         	call	i2_in_high_int	;wreg free
  6188  000FCA  5030               	movf	?i2_in_high_int+1,w,c
  6189  000FCC  102F               	iorwf	?i2_in_high_int,w,c
  6190  000FCE  B4D8               	btfsc	status,2,c
  6191  000FD0  0012               	return	
  6192                           
  6193                           ;messages.c: 242: }
  6194                           ;messages.c: 247: if (check_msg(&ToMainHigh_MQ)) {
  6195                           
  6196                           ;messages.c: 241: return;
  6197  000FD2  0101               	movlb	1	; () banked
  6198  000FD4  0E01               	movlw	high _ToMainHigh_MQ
  6199  000FD6  6E30               	movwf	i2check_msg@qptr+1,c
  6200  000FD8  0101               	movlb	1	; () banked
  6201  000FDA  0E6C               	movlw	low _ToMainHigh_MQ
  6202  000FDC  6E2F               	movwf	i2check_msg@qptr,c
  6203  000FDE  ECA3  F009         	call	i2_check_msg	;wreg free
  6204  000FE2  0900               	iorlw	0
  6205  000FE4  A4D8               	btfss	status,2,c
  6206  000FE6  0012               	return	
  6207                           
  6208                           ;messages.c: 249: }
  6209                           ;messages.c: 250: if (check_msg(&ToMainLow_MQ)) {
  6210                           
  6211                           ;messages.c: 248: return;
  6212  000FE8  0100               	movlb	0	; () banked
  6213  000FEA  0E00               	movlw	high _ToMainLow_MQ
  6214  000FEC  6E30               	movwf	i2check_msg@qptr+1,c
  6215  000FEE  0100               	movlb	0	; () banked
  6216  000FF0  0E80               	movlw	low _ToMainLow_MQ
  6217  000FF2  6E2F               	movwf	i2check_msg@qptr,c
  6218  000FF4  ECA3  F009         	call	i2_check_msg	;wreg free
  6219  000FF8  0900               	iorlw	0
  6220  000FFA  B4D8               	btfsc	status,2,c
  6221                           
  6222                           ;messages.c: 252: }
  6223                           ;messages.c: 253: enter_sleep_mode();
  6224                           
  6225                           ;messages.c: 251: return;
  6226  000FFC  EC1A  F00A         	call	_enter_sleep_mode	;wreg free
  6227  001000  0012               	return	
  6228  001002                     __end_of_SleepIfOkay:
  6229                           	opt stack 0
  6230                           pclatu	equ	0xFFB
  6231                           pclath	equ	0xFFA
  6232                           tblptru	equ	0xFF8
  6233                           tblptrh	equ	0xFF7
  6234                           tblptrl	equ	0xFF6
  6235                           tablat	equ	0xFF5
  6236                           prodh	equ	0xFF4
  6237                           prodl	equ	0xFF3
  6238                           intcon	equ	0xFF2
  6239                           postinc0	equ	0xFEE
  6240                           fsr0h	equ	0xFEA
  6241                           fsr0l	equ	0xFE9
  6242                           wreg	equ	0xFE8
  6243                           indf1	equ	0xFE7
  6244                           fsr1h	equ	0xFE2
  6245                           fsr1l	equ	0xFE1
  6246                           bsr	equ	0xFE0
  6247                           indf2	equ	0xFDF
  6248                           fsr2h	equ	0xFDA
  6249                           fsr2l	equ	0xFD9
  6250                           status	equ	0xFD8
  6251                           
  6252 ;; *************** function i2_in_low_int *****************
  6253 ;; Defined at:
  6254 ;;		line 30 in file "../src/interrupts.c"
  6255 ;; Parameters:    Size  Location     Type
  6256 ;;		None
  6257 ;; Auto vars:     Size  Location     Type
  6258 ;;		None
  6259 ;; Return value:  Size  Location     Type
  6260 ;;                  2   48[COMRAM] int 
  6261 ;; Registers used:
  6262 ;;		wreg, status,2, status,0, cstack
  6263 ;; Tracked objects:
  6264 ;;		On entry : 0/0
  6265 ;;		On exit  : 0/0
  6266 ;;		Unchanged: 0/0
  6267 ;; Data sizes:     COMRAM   BANK0   BANK1   BANK2   BANK3
  6268 ;;      Params:         2       0       0       0       0
  6269 ;;      Locals:         0       0       0       0       0
  6270 ;;      Temps:          0       0       0       0       0
  6271 ;;      Totals:         2       0       0       0       0
  6272 ;;Total ram usage:        2 bytes
  6273 ;; Hardware stack levels used:    1
  6274 ;; Hardware stack levels required when called:    1
  6275 ;; This function calls:
  6276 ;;		i2_in_high_int
  6277 ;; This function is called by:
  6278 ;;		_SleepIfOkay
  6279 ;; This function uses a non-reentrant model
  6280 ;;
  6281                           
  6282                           	psect	text41
  6283  001276                     __ptext41:
  6284                           	opt stack 0
  6285  001276                     i2_in_low_int:
  6286                           	opt stack 18
  6287                           
  6288                           ;interrupts.c: 31: if (INTCONbits.GIEL == 1) {
  6289                           
  6290                           ;incstack = 0
  6291  001276  ACF2               	btfss	intcon,6,c	;volatile
  6292  001278  D005               	goto	i2l2427
  6293                           
  6294                           ;interrupts.c: 32: return (0);
  6295  00127A  0E00               	movlw	0
  6296  00127C  6E32               	movwf	?i2_in_low_int+1,c
  6297  00127E  0E00               	movlw	0
  6298  001280  6E31               	movwf	?i2_in_low_int,c
  6299  001282  0012               	return	
  6300  001284                     i2l2427:
  6301  001284  EC0B  F00A         	call	i2_in_high_int	;wreg free
  6302  001288  5030               	movf	?i2_in_high_int+1,w,c
  6303  00128A  102F               	iorwf	?i2_in_high_int,w,c
  6304  00128C  B4D8               	btfsc	status,2,c
  6305  00128E  D005               	goto	i2l2435
  6306                           
  6307                           ;interrupts.c: 34: return (0);
  6308  001290  0E00               	movlw	0
  6309  001292  6E32               	movwf	?i2_in_low_int+1,c
  6310  001294  0E00               	movlw	0
  6311  001296  6E31               	movwf	?i2_in_low_int,c
  6312  001298  0012               	return	
  6313  00129A                     i2l2435:
  6314                           
  6315                           ;interrupts.c: 36: return (1);
  6316  00129A  0E00               	movlw	0
  6317  00129C  6E32               	movwf	?i2_in_low_int+1,c
  6318  00129E  0E01               	movlw	1
  6319  0012A0  6E31               	movwf	?i2_in_low_int,c
  6320  0012A2  0012               	return	
  6321  0012A4                     __end_ofi2_in_low_int:
  6322                           	opt stack 0
  6323                           pclatu	equ	0xFFB
  6324                           pclath	equ	0xFFA
  6325                           tblptru	equ	0xFF8
  6326                           tblptrh	equ	0xFF7
  6327                           tblptrl	equ	0xFF6
  6328                           tablat	equ	0xFF5
  6329                           prodh	equ	0xFF4
  6330                           prodl	equ	0xFF3
  6331                           intcon	equ	0xFF2
  6332                           postinc0	equ	0xFEE
  6333                           fsr0h	equ	0xFEA
  6334                           fsr0l	equ	0xFE9
  6335                           wreg	equ	0xFE8
  6336                           indf1	equ	0xFE7
  6337                           fsr1h	equ	0xFE2
  6338                           fsr1l	equ	0xFE1
  6339                           bsr	equ	0xFE0
  6340                           indf2	equ	0xFDF
  6341                           fsr2h	equ	0xFDA
  6342                           fsr2l	equ	0xFD9
  6343                           status	equ	0xFD8
  6344                           
  6345 ;; *************** function i2_in_high_int *****************
  6346 ;; Defined at:
  6347 ;;		line 22 in file "../src/interrupts.c"
  6348 ;; Parameters:    Size  Location     Type
  6349 ;;		None
  6350 ;; Auto vars:     Size  Location     Type
  6351 ;;		None
  6352 ;; Return value:  Size  Location     Type
  6353 ;;                  2   46[COMRAM] int 
  6354 ;; Registers used:
  6355 ;;		wreg, status,2
  6356 ;; Tracked objects:
  6357 ;;		On entry : 0/0
  6358 ;;		On exit  : 0/0
  6359 ;;		Unchanged: 0/0
  6360 ;; Data sizes:     COMRAM   BANK0   BANK1   BANK2   BANK3
  6361 ;;      Params:         2       0       0       0       0
  6362 ;;      Locals:         0       0       0       0       0
  6363 ;;      Temps:          0       0       0       0       0
  6364 ;;      Totals:         2       0       0       0       0
  6365 ;;Total ram usage:        2 bytes
  6366 ;; Hardware stack levels used:    1
  6367 ;; This function calls:
  6368 ;;		Nothing
  6369 ;; This function is called by:
  6370 ;;		_SleepIfOkay
  6371 ;;		i2_in_low_int
  6372 ;; This function uses a non-reentrant model
  6373 ;;
  6374                           
  6375                           	psect	text42
  6376  001416                     __ptext42:
  6377                           	opt stack 0
  6378  001416                     i2_in_high_int:
  6379                           	opt stack 18
  6380                           
  6381                           ;interrupts.c: 23: return (!INTCONbits.GIEH);
  6382                           
  6383                           ;incstack = 0
  6384  001416  0E00               	movlw	0
  6385  001418  AEF2               	btfss	intcon,7,c	;volatile
  6386  00141A  0E01               	movlw	1
  6387  00141C  6E2F               	movwf	?i2_in_high_int,c
  6388  00141E  6A30               	clrf	?i2_in_high_int+1,c
  6389  001420  0012               	return	
  6390  001422                     __end_ofi2_in_high_int:
  6391                           	opt stack 0
  6392                           pclatu	equ	0xFFB
  6393                           pclath	equ	0xFFA
  6394                           tblptru	equ	0xFF8
  6395                           tblptrh	equ	0xFF7
  6396                           tblptrl	equ	0xFF6
  6397                           tablat	equ	0xFF5
  6398                           prodh	equ	0xFF4
  6399                           prodl	equ	0xFF3
  6400                           intcon	equ	0xFF2
  6401                           postinc0	equ	0xFEE
  6402                           fsr0h	equ	0xFEA
  6403                           fsr0l	equ	0xFE9
  6404                           wreg	equ	0xFE8
  6405                           indf1	equ	0xFE7
  6406                           fsr1h	equ	0xFE2
  6407                           fsr1l	equ	0xFE1
  6408                           bsr	equ	0xFE0
  6409                           indf2	equ	0xFDF
  6410                           fsr2h	equ	0xFDA
  6411                           fsr2l	equ	0xFD9
  6412                           status	equ	0xFD8
  6413                           
  6414 ;; *************** function i2_check_msg *****************
  6415 ;; Defined at:
  6416 ;;		line 222 in file "../src/messages.c"
  6417 ;; Parameters:    Size  Location     Type
  6418 ;;  qptr            2   46[COMRAM] PTR struct __msg_queue
  6419 ;;		 -> ToMainHigh_MQ(54), ToMainLow_MQ(54), 
  6420 ;; Auto vars:     Size  Location     Type
  6421 ;;		None
  6422 ;; Return value:  Size  Location     Type
  6423 ;;                  1    wreg      unsigned char 
  6424 ;; Registers used:
  6425 ;;		wreg, fsr2l, fsr2h, status,2, status,0, prodl, prodh
  6426 ;; Tracked objects:
  6427 ;;		On entry : 0/0
  6428 ;;		On exit  : 0/0
  6429 ;;		Unchanged: 0/0
  6430 ;; Data sizes:     COMRAM   BANK0   BANK1   BANK2   BANK3
  6431 ;;      Params:         2       0       0       0       0
  6432 ;;      Locals:         0       0       0       0       0
  6433 ;;      Temps:          1       0       0       0       0
  6434 ;;      Totals:         3       0       0       0       0
  6435 ;;Total ram usage:        3 bytes
  6436 ;; Hardware stack levels used:    1
  6437 ;; This function calls:
  6438 ;;		Nothing
  6439 ;; This function is called by:
  6440 ;;		_SleepIfOkay
  6441 ;; This function uses a non-reentrant model
  6442 ;;
  6443                           
  6444                           	psect	text43
  6445  001346                     __ptext43:
  6446                           	opt stack 0
  6447  001346                     i2_check_msg:
  6448                           	opt stack 19
  6449                           
  6450                           ;messages.c: 223: return (qptr->queue[qptr->cur_read_ind].full);
  6451                           
  6452                           ;incstack = 0
  6453  001346  EE20 F035          	lfsr	2,53
  6454  00134A  502F               	movf	i2check_msg@qptr,w,c
  6455  00134C  26D9               	addwf	fsr2l,f,c
  6456  00134E  5030               	movf	i2check_msg@qptr+1,w,c
  6457  001350  22DA               	addwfc	fsr2h,f,c
  6458  001352  50DF               	movf	indf2,w,c
  6459  001354  6E31               	movwf	??i2_check_msg& (0+255),c
  6460  001356  5031               	movf	??i2_check_msg,w,c
  6461  001358  0D0D               	mullw	13
  6462  00135A  50F3               	movf	prodl,w,c
  6463  00135C  242F               	addwf	i2check_msg@qptr,w,c
  6464  00135E  6ED9               	movwf	fsr2l,c
  6465  001360  50F4               	movf	prodh,w,c
  6466  001362  2030               	addwfc	i2check_msg@qptr+1,w,c
  6467  001364  6EDA               	movwf	fsr2h,c
  6468  001366  50DF               	movf	indf2,w,c
  6469  001368  0012               	return	
  6470  00136A                     __end_ofi2_check_msg:
  6471                           	opt stack 0
  6472                           pclatu	equ	0xFFB
  6473                           pclath	equ	0xFFA
  6474                           tblptru	equ	0xFF8
  6475                           tblptrh	equ	0xFF7
  6476                           tblptrl	equ	0xFF6
  6477                           tablat	equ	0xFF5
  6478                           prodh	equ	0xFF4
  6479                           prodl	equ	0xFF3
  6480                           intcon	equ	0xFF2
  6481                           postinc0	equ	0xFEE
  6482                           fsr0h	equ	0xFEA
  6483                           fsr0l	equ	0xFE9
  6484                           wreg	equ	0xFE8
  6485                           indf1	equ	0xFE7
  6486                           fsr1h	equ	0xFE2
  6487                           fsr1l	equ	0xFE1
  6488                           bsr	equ	0xFE0
  6489                           indf2	equ	0xFDF
  6490                           fsr2h	equ	0xFDA
  6491                           fsr2l	equ	0xFD9
  6492                           status	equ	0xFD8
  6493                           
  6494 ;; *************** function _enter_sleep_mode *****************
  6495 ;; Defined at:
  6496 ;;		line 202 in file "../src/messages.c"
  6497 ;; Parameters:    Size  Location     Type
  6498 ;;		None
  6499 ;; Auto vars:     Size  Location     Type
  6500 ;;		None
  6501 ;; Return value:  Size  Location     Type
  6502 ;;		None               void
  6503 ;; Registers used:
  6504 ;;		None
  6505 ;; Tracked objects:
  6506 ;;		On entry : 0/0
  6507 ;;		On exit  : 0/0
  6508 ;;		Unchanged: 0/0
  6509 ;; Data sizes:     COMRAM   BANK0   BANK1   BANK2   BANK3
  6510 ;;      Params:         0       0       0       0       0
  6511 ;;      Locals:         0       0       0       0       0
  6512 ;;      Temps:          0       0       0       0       0
  6513 ;;      Totals:         0       0       0       0       0
  6514 ;;Total ram usage:        0 bytes
  6515 ;; Hardware stack levels used:    1
  6516 ;; This function calls:
  6517 ;;		Nothing
  6518 ;; This function is called by:
  6519 ;;		_SleepIfOkay
  6520 ;; This function uses a non-reentrant model
  6521 ;;
  6522                           
  6523                           	psect	text44
  6524  001434                     __ptext44:
  6525                           	opt stack 0
  6526  001434                     _enter_sleep_mode:
  6527                           	opt stack 19
  6528                           
  6529                           ;messages.c: 204: OSCCONbits.IDLEN = 1;
  6530                           
  6531                           ;incstack = 0
  6532  001434  8ED3               	bsf	4051,7,c	;volatile
  6533  001436  0003               	sleep		;# 
  6534  001438  0012               	return	
  6535  00143A                     __end_of_enter_sleep_mode:
  6536                           	opt stack 0
  6537  0000                     pclatu	equ	0xFFB
  6538                           pclath	equ	0xFFA
  6539                           tblptru	equ	0xFF8
  6540                           tblptrh	equ	0xFF7
  6541                           tblptrl	equ	0xFF6
  6542                           tablat	equ	0xFF5
  6543                           prodh	equ	0xFF4
  6544                           prodl	equ	0xFF3
  6545                           intcon	equ	0xFF2
  6546                           postinc0	equ	0xFEE
  6547                           fsr0h	equ	0xFEA
  6548                           fsr0l	equ	0xFE9
  6549                           wreg	equ	0xFE8
  6550                           indf1	equ	0xFE7
  6551                           fsr1h	equ	0xFE2
  6552                           fsr1l	equ	0xFE1
  6553                           bsr	equ	0xFE0
  6554                           indf2	equ	0xFDF
  6555                           fsr2h	equ	0xFDA
  6556                           fsr2l	equ	0xFD9
  6557                           status	equ	0xFD8
  6558                           pclatu	equ	0xFFB
  6559                           pclath	equ	0xFFA
  6560                           tblptru	equ	0xFF8
  6561                           tblptrh	equ	0xFF7
  6562                           tblptrl	equ	0xFF6
  6563                           tablat	equ	0xFF5
  6564                           prodh	equ	0xFF4
  6565                           prodl	equ	0xFF3
  6566                           intcon	equ	0xFF2
  6567                           postinc0	equ	0xFEE
  6568                           fsr0h	equ	0xFEA
  6569                           fsr0l	equ	0xFE9
  6570                           wreg	equ	0xFE8
  6571                           indf1	equ	0xFE7
  6572                           fsr1h	equ	0xFE2
  6573                           fsr1l	equ	0xFE1
  6574                           bsr	equ	0xFE0
  6575                           indf2	equ	0xFDF
  6576                           fsr2h	equ	0xFDA
  6577                           fsr2l	equ	0xFD9
  6578                           status	equ	0xFD8
  6579                           
  6580                           	psect	rparam
  6581  0000                     pclatu	equ	0xFFB
  6582                           pclath	equ	0xFFA
  6583                           tblptru	equ	0xFF8
  6584                           tblptrh	equ	0xFF7
  6585                           tblptrl	equ	0xFF6
  6586                           tablat	equ	0xFF5
  6587                           prodh	equ	0xFF4
  6588                           prodl	equ	0xFF3
  6589                           intcon	equ	0xFF2
  6590                           postinc0	equ	0xFEE
  6591                           fsr0h	equ	0xFEA
  6592                           fsr0l	equ	0xFE9
  6593                           wreg	equ	0xFE8
  6594                           indf1	equ	0xFE7
  6595                           fsr1h	equ	0xFE2
  6596                           fsr1l	equ	0xFE1
  6597                           bsr	equ	0xFE0
  6598                           indf2	equ	0xFDF
  6599                           fsr2h	equ	0xFDA
  6600                           fsr2l	equ	0xFD9
  6601                           status	equ	0xFD8


Data Sizes:
    Strings     0
    Constant    0
    Data        2
    BSS         228
    Persistent  4
    Stack       0

Auto Spaces:
    Space          Size  Autos    Used
    COMRAM          127     63      81
    BANK0           128     39      93
    BANK1           256     86     248
    BANK2           256      0       0
    BANK3           256      0       0

Pointer List with Targets:

    start_i2c_slave_reply@msg	PTR unsigned char  size(2) Largest target is 0
		 -> NULL(NULL[0]), 

    memcpy@d1	PTR void  size(2) Largest target is 54
		 -> FromMainLow_MQ.queue(BANK1[52]), FromMainHigh_MQ.queue(BANK1[52]), ToMainHigh_MQ.queue(BANK1[52]), ToMainLow_MQ.queue(BANK0[52]), 
		 -> FromMainHigh_MQ(BANK1[54]), FromMainLow_MQ(BANK1[54]), ToMainHigh_MQ(BANK1[54]), ToMainLow_MQ(BANK0[54]), 
		 -> main@msgbuffer(BANK1[11]), 

    memcpy@d	PTR unsigned char  size(2) Largest target is 54
		 -> FromMainLow_MQ.queue(BANK1[52]), FromMainHigh_MQ.queue(BANK1[52]), ToMainHigh_MQ.queue(BANK1[52]), ToMainLow_MQ.queue(BANK0[52]), 
		 -> FromMainHigh_MQ(BANK1[54]), FromMainLow_MQ(BANK1[54]), ToMainHigh_MQ(BANK1[54]), ToMainLow_MQ(BANK0[54]), 
		 -> main@msgbuffer(BANK1[11]), 

    memcpy@s1	PTR const void  size(2) Largest target is 54
		 -> ToMainLow_MQ.data(BANK0[10]), ToMainHigh_MQ.data(BANK1[10]), FromMainLow_MQ.data(BANK1[10]), FromMainHigh_MQ.data(BANK1[10]), 
		 -> ToMainLow_MQ.queue.data(BANK0[10]), ToMainHigh_MQ.queue.data(BANK1[10]), FromMainHigh_MQ.queue.data(BANK1[10]), FromMainLow_MQ.queue.data(BANK1[10]), 
		 -> timer0_lthread@val(COMRAM[2]), NULL(NULL[0]), i2c_int_handler@error_buf(BANK0[3]), FromMainHigh_MQ(BANK1[54]), 
		 -> FromMainLow_MQ(BANK1[54]), ToMainHigh_MQ(BANK1[54]), ToMainLow_MQ(BANK0[54]), main@ic(BANK1[40]), 
		 -> main@uc(BANK1[5]), 

    memcpy@s	PTR const unsigned char  size(2) Largest target is 54
		 -> ToMainLow_MQ.data(BANK0[10]), ToMainHigh_MQ.data(BANK1[10]), FromMainLow_MQ.data(BANK1[10]), FromMainHigh_MQ.data(BANK1[10]), 
		 -> ToMainLow_MQ.queue.data(BANK0[10]), ToMainHigh_MQ.queue.data(BANK1[10]), FromMainHigh_MQ.queue.data(BANK1[10]), FromMainLow_MQ.queue.data(BANK1[10]), 
		 -> timer0_lthread@val(COMRAM[2]), NULL(NULL[0]), i2c_int_handler@error_buf(BANK0[3]), FromMainHigh_MQ(BANK1[54]), 
		 -> FromMainLow_MQ(BANK1[54]), ToMainHigh_MQ(BANK1[54]), ToMainLow_MQ(BANK0[54]), main@ic(BANK1[40]), 
		 -> main@uc(BANK1[5]), 

    init_uart_recv@uc	PTR struct __uart_comm size(2) Largest target is 5
		 -> main@uc(BANK1[5]), 

    uc_ptr	PTR struct __uart_comm size(2) Largest target is 5
		 -> NULL(NULL[0]), main@uc(BANK1[5]), 

    init_i2c@ic	PTR struct __i2c_comm size(2) Largest target is 40
		 -> main@ic(BANK1[40]), 

    Handle_i2c_data_save@msg	PTR unsigned char  size(2) Largest target is 2
		 -> adc_int_handler@result(COMRAM[2]), 

    ic_ptr	PTR struct __i2c_comm size(2) Largest target is 40
		 -> NULL(NULL[0]), main@ic(BANK1[40]), 

    check_msg@qptr	PTR struct __msg_queue size(2) Largest target is 54
		 -> ToMainHigh_MQ(BANK1[54]), ToMainLow_MQ(BANK0[54]), 

    ToMainHigh_recvmsg@data	PTR void  size(2) Largest target is 11
		 -> main@msgbuffer(BANK1[11]), 

    ToMainHigh_recvmsg@msgtype	PTR unsigned char  size(2) Largest target is 1
		 -> main@msgtype(BANK1[1]), 

    ToMainHigh_sendmsg@data	PTR void  size(2) Largest target is 40
		 -> NULL(NULL[0]), i2c_int_handler@error_buf(BANK0[3]), main@ic(BANK1[40]), 

    ToMainLow_sendmsg@data	PTR void  size(2) Largest target is 5
		 -> timer0_lthread@val(COMRAM[2]), NULL(NULL[0]), main@uc(BANK1[5]), 

    recv_msg@msgtype	PTR unsigned char  size(2) Largest target is 1
		 -> main@msgtype(BANK1[1]), 

    recv_msg@data	PTR void  size(2) Largest target is 11
		 -> main@msgbuffer(BANK1[11]), 

    recv_msg@qmsg	PTR struct __msg size(2) Largest target is 54
		 -> FromMainLow_MQ.queue(BANK1[52]), FromMainHigh_MQ.queue(BANK1[52]), ToMainHigh_MQ.queue(BANK1[52]), ToMainLow_MQ.queue(BANK0[52]), 
		 -> FromMainHigh_MQ(BANK1[54]), FromMainLow_MQ(BANK1[54]), ToMainHigh_MQ(BANK1[54]), ToMainLow_MQ(BANK0[54]), 

    recv_msg@qptr	PTR struct __msg_queue size(2) Largest target is 54
		 -> FromMainHigh_MQ(BANK1[54]), FromMainLow_MQ(BANK1[54]), ToMainHigh_MQ(BANK1[54]), ToMainLow_MQ(BANK0[54]), 

    sp__memcpy	PTR void  size(2) Largest target is 54
		 -> FromMainLow_MQ.queue(BANK1[52]), FromMainHigh_MQ.queue(BANK1[52]), ToMainHigh_MQ.queue(BANK1[52]), ToMainLow_MQ.queue(BANK0[52]), 
		 -> FromMainHigh_MQ(BANK1[54]), FromMainLow_MQ(BANK1[54]), ToMainHigh_MQ(BANK1[54]), ToMainLow_MQ(BANK0[54]), 
		 -> main@msgbuffer(BANK1[11]), 

    send_msg@data	PTR void  size(2) Largest target is 40
		 -> timer0_lthread@val(COMRAM[2]), NULL(NULL[0]), i2c_int_handler@error_buf(BANK0[3]), main@ic(BANK1[40]), 
		 -> main@uc(BANK1[5]), 

    send_msg@qmsg	PTR struct __msg size(2) Largest target is 54
		 -> FromMainLow_MQ.queue(BANK1[52]), FromMainHigh_MQ.queue(BANK1[52]), ToMainHigh_MQ.queue(BANK1[52]), ToMainLow_MQ.queue(BANK0[52]), 
		 -> FromMainHigh_MQ(BANK1[54]), FromMainLow_MQ(BANK1[54]), ToMainHigh_MQ(BANK1[54]), ToMainLow_MQ(BANK0[54]), 

    send_msg@qptr	PTR struct __msg_queue size(2) Largest target is 54
		 -> FromMainHigh_MQ(BANK1[54]), FromMainLow_MQ(BANK1[54]), ToMainHigh_MQ(BANK1[54]), ToMainLow_MQ(BANK0[54]), 

    init_queue@qptr	PTR struct __msg_queue size(2) Largest target is 54
		 -> FromMainHigh_MQ(BANK1[54]), FromMainLow_MQ(BANK1[54]), ToMainHigh_MQ(BANK1[54]), ToMainLow_MQ(BANK0[54]), 


Critical Paths under _main in COMRAM

    None.

Critical Paths under _InterruptHandlerHigh in COMRAM

    _timer0_int_handler->_WriteTimer0
    _ToMainHigh_sendmsg->i2_send_msg
    i2_send_msg->i2_memcpy
    _adc_int_handler->_Handle_i2c_data_save
    _SleepIfOkay->i2_in_low_int
    i2_in_low_int->i2_in_high_int

Critical Paths under _InterruptHandlerLow in COMRAM

    _InterruptHandlerLow->_timer1_int_handler
    _uart_recv_int_handler->_ToMainLow_sendmsg
    _timer1_int_handler->_ToMainLow_sendmsg
    _ToMainLow_sendmsg->_send_msg
    _send_msg->i1_memcpy

Critical Paths under _main in BANK0

    _main->_OpenADC
    _init_queues->_init_queue
    _in_main->_in_low_int
    _in_low_int->_in_high_int
    _recv_msg->_memcpy

Critical Paths under _InterruptHandlerHigh in BANK0

    _InterruptHandlerHigh->_i2c_int_handler
    _i2c_int_handler->_ToMainHigh_sendmsg
    _ToMainHigh_sendmsg->i2_send_msg

Critical Paths under _InterruptHandlerLow in BANK0

    None.

Critical Paths under _main in BANK1

    _main->_ToMainHigh_recvmsg
    _block_on_To_msgqueues->_in_main
    _ToMainHigh_recvmsg->_recv_msg
    _recv_msg->_memcpy

Critical Paths under _InterruptHandlerHigh in BANK1

    None.

Critical Paths under _InterruptHandlerLow in BANK1

    None.

Critical Paths under _main in BANK2

    None.

Critical Paths under _InterruptHandlerHigh in BANK2

    None.

Critical Paths under _InterruptHandlerLow in BANK2

    None.

Critical Paths under _main in BANK3

    None.

Critical Paths under _InterruptHandlerHigh in BANK3

    None.

Critical Paths under _InterruptHandlerLow in BANK3

    None.

Call Graph Tables:

 ---------------------------------------------------------------------------------
 (Depth) Function   	        Calls       Base Space   Used Autos Params    Refs
 ---------------------------------------------------------------------------------
 (0) _main                                                67    67      0    4576
                                             25 BANK1     61    61      0
                            _OpenADC
                         _OpenTimer0
                 _ToMainHigh_recvmsg
              _block_on_To_msgqueues
                  _enable_interrupts
                _i2c_configure_slave
                           _init_i2c
                        _init_queues
                     _init_uart_recv
 ---------------------------------------------------------------------------------
 (1) _init_uart_recv                                       2     0      2      86
                                             35 BANK0      2     0      2
 ---------------------------------------------------------------------------------
 (1) _init_queues                                          1     1      0     390
                                              0 BANK1      1     1      0
                         _init_queue
 ---------------------------------------------------------------------------------
 (2) _init_queue                                           4     2      2     390
                                             35 BANK0      4     2      2
 ---------------------------------------------------------------------------------
 (1) _init_i2c                                             2     0      2      86
                                             35 BANK0      2     0      2
 ---------------------------------------------------------------------------------
 (1) _i2c_configure_slave                                  1     1      0      22
                                             35 BANK0      1     1      0
 ---------------------------------------------------------------------------------
 (1) _enable_interrupts                                    0     0      0       0
 ---------------------------------------------------------------------------------
 (1) _block_on_To_msgqueues                                1     1      0     270
                                              2 BANK1      1     1      0
                        _Delay1KTCYx
                          _check_msg
                            _in_main
 ---------------------------------------------------------------------------------
 (2) _in_main                                              2     0      2       0
                                              0 BANK1      2     0      2
                        _in_high_int
                         _in_low_int
 ---------------------------------------------------------------------------------
 (3) _in_low_int                                           2     0      2       0
                                             37 BANK0      2     0      2
                        _in_high_int
 ---------------------------------------------------------------------------------
 (4) _in_high_int                                          2     0      2       0
                                             35 BANK0      2     0      2
 ---------------------------------------------------------------------------------
 (2) _check_msg                                            3     1      2     248
                                             35 BANK0      3     1      2
 ---------------------------------------------------------------------------------
 (2) _Delay1KTCYx                                          1     1      0      22
                                             35 BANK0      1     1      0
 ---------------------------------------------------------------------------------
 (1) _ToMainHigh_recvmsg                                   5     1      4    2515
                                             20 BANK1      5     1      4
                           _recv_msg
 ---------------------------------------------------------------------------------
 (2) _recv_msg                                            14     7      7    2268
                                              6 BANK1     14     7      7
                             _memcpy
 ---------------------------------------------------------------------------------
 (3) _memcpy                                              10     4      6     531
                                             35 BANK0      4     4      0
                                              0 BANK1      6     0      6
 ---------------------------------------------------------------------------------
 (1) _OpenTimer0                                           1     1      0      44
                                             35 BANK0      1     1      0
 ---------------------------------------------------------------------------------
 (1) _OpenADC                                              5     3      2     371
                                             35 BANK0      4     2      2
                                              0 BANK1      1     1      0
 ---------------------------------------------------------------------------------
 Estimated maximum stack depth 4
 ---------------------------------------------------------------------------------
 (Depth) Function   	        Calls       Base Space   Used Autos Params    Refs
 ---------------------------------------------------------------------------------
 (5) _InterruptHandlerLow                                 17    17      0    4874
                                             29 COMRAM    17    17      0
                 _timer1_int_handler
              _uart_recv_int_handler
 ---------------------------------------------------------------------------------
 (6) _uart_recv_int_handler                                1     1      0    2384
                                             26 COMRAM     1     1      0
                          _ReadUSART
                  _ToMainLow_sendmsg
 ---------------------------------------------------------------------------------
 (7) _ReadUSART                                            1     1      0      23
                                              0 COMRAM     1     1      0
 ---------------------------------------------------------------------------------
 (6) _timer1_int_handler                                   3     3      0    2490
                                             26 COMRAM     3     3      0
                         _ReadTimer1
                  _ToMainLow_sendmsg
                        _WriteTimer1
 ---------------------------------------------------------------------------------
 (7) _WriteTimer1                                          4     2      2      98
                                              0 COMRAM     4     2      2
 ---------------------------------------------------------------------------------
 (7) _ToMainLow_sendmsg                                    4     1      3    2361
                                             22 COMRAM     4     1      3
                           _send_msg
 ---------------------------------------------------------------------------------
 (8) _send_msg                                            12     6      6    1783
                                             10 COMRAM    12     6      6
                           i1_memcpy
 ---------------------------------------------------------------------------------
 (9) i1_memcpy                                            10     4      6     530
                                              0 COMRAM    10     4      6
 ---------------------------------------------------------------------------------
 (7) _ReadTimer1                                           4     2      2      30
                                              0 COMRAM     4     2      2
 ---------------------------------------------------------------------------------
 Estimated maximum stack depth 9
 ---------------------------------------------------------------------------------
 (Depth) Function   	        Calls       Base Space   Used Autos Params    Refs
 ---------------------------------------------------------------------------------
 (10) _InterruptHandlerHigh                               15    15      0    3929
                                             20 BANK0     15    15      0
                        _SleepIfOkay
                    _adc_int_handler
                    _i2c_int_handler
                 _timer0_int_handler
 ---------------------------------------------------------------------------------
 (11) _timer0_int_handler                                  6     6      0      98
                         _ConvertADC
                        _WriteTimer0
 ---------------------------------------------------------------------------------
 (12) _WriteTimer0                                         4     2      2      98
                                             46 COMRAM     4     2      2
 ---------------------------------------------------------------------------------
 (12) _ConvertADC                                          0     0      0       0
 ---------------------------------------------------------------------------------
 (11) _i2c_int_handler                                    11    11      0    3462
                                              9 BANK0     11    11      0
                 _ToMainHigh_sendmsg
                       _handle_start
              _start_i2c_slave_reply
 ---------------------------------------------------------------------------------
 (12) _start_i2c_slave_reply                               6     4      2     108
                                             46 COMRAM     6     4      2
 ---------------------------------------------------------------------------------
 (12) _handle_start                                        1     1      0      22
                                             46 COMRAM     1     1      0
 ---------------------------------------------------------------------------------
 (12) _ToMainHigh_sendmsg                                  4     1      3    2748
                                              5 BANK0      4     1      3
                         i2_send_msg
 ---------------------------------------------------------------------------------
 (13) i2_send_msg                                         12     6      6    2347
                                             56 COMRAM     7     1      6
                                              0 BANK0      5     5      0
                           i2_memcpy
 ---------------------------------------------------------------------------------
 (14) i2_memcpy                                           10     4      6     796
                                             46 COMRAM    10     4      6
 ---------------------------------------------------------------------------------
 (11) _adc_int_handler                                     4     4      0     133
                                             49 COMRAM     4     4      0
               _Handle_i2c_data_save
                            _ReadADC
 ---------------------------------------------------------------------------------
 (12) _ReadADC                                             2     0      2       0
                                             46 COMRAM     2     0      2
 ---------------------------------------------------------------------------------
 (12) _Handle_i2c_data_save                                4     2      2      86
                                             46 COMRAM     3     1      2
 ---------------------------------------------------------------------------------
 (11) _SleepIfOkay                                         0     0      0     236
                   _enter_sleep_mode
                        i2_check_msg
                      i2_in_high_int
                       i2_in_low_int
 ---------------------------------------------------------------------------------
 (12) i2_in_low_int                                        2     0      2       0
                                             48 COMRAM     2     0      2
                      i2_in_high_int
 ---------------------------------------------------------------------------------
 (13) i2_in_high_int                                       2     0      2       0
                                             46 COMRAM     2     0      2
 ---------------------------------------------------------------------------------
 (12) i2_check_msg                                         3     1      2     236
                                             46 COMRAM     3     1      2
 ---------------------------------------------------------------------------------
 (12) _enter_sleep_mode                                    0     0      0       0
 ---------------------------------------------------------------------------------
 Estimated maximum stack depth 14
 ---------------------------------------------------------------------------------

 Call Graph Graphs:

 _main (ROOT)
   _OpenADC
   _OpenTimer0
   _ToMainHigh_recvmsg
     _recv_msg
       _memcpy
   _block_on_To_msgqueues
     _Delay1KTCYx
     _check_msg
     _in_main
       _in_high_int
       _in_low_int
         _in_high_int
   _enable_interrupts
   _i2c_configure_slave
   _init_i2c
   _init_queues
     _init_queue
   _init_uart_recv

 _InterruptHandlerLow (ROOT)
   _timer1_int_handler
     _ReadTimer1
     _ToMainLow_sendmsg
       _send_msg
         i1_memcpy
     _WriteTimer1
   _uart_recv_int_handler
     _ReadUSART
     _ToMainLow_sendmsg
       _send_msg
         i1_memcpy

 _InterruptHandlerHigh (ROOT)
   _SleepIfOkay
     _enter_sleep_mode
     i2_check_msg
     i2_in_high_int
     i2_in_low_int
       i2_in_high_int
   _adc_int_handler
     _Handle_i2c_data_save
     _ReadADC
   _i2c_int_handler
     _ToMainHigh_sendmsg
       i2_send_msg
         i2_memcpy
     _handle_start
     _start_i2c_slave_reply
   _timer0_int_handler
     _ConvertADC
     _WriteTimer0

 Address spaces:
Name               Size   Autos  Total    Cost      Usage
BIGRAM             3FF      0       0      12        0.0%
BITBANK3           100      0       0       9        0.0%
BANK3              100      0       0      10        0.0%
BITBANK2           100      0       0       7        0.0%
BANK2              100      0       0       8        0.0%
BITBANK1           100      0       0       5        0.0%
BANK1              100     56      F8       6       96.9%
BITBANK0            80      0       0       3        0.0%
BANK0               80     27      5D       4       72.7%
BITCOMRAM           7F      0       0       0        0.0%
COMRAM              7F     3F      51       1       63.8%
BITSFR               0      0       0      40        0.0%
SFR                  0      0       0      40        0.0%
STACK                0      0       0       2        0.0%
NULL                 0      0       0       0        0.0%
ABS                  0      0     1A6      11        0.0%
DATA                 0      0     1A6      13        0.0%
CODE                 0      0       0       0        0.0%


Microchip Technology PIC18 Macro Assembler V1.30 build 55553 
Symbol Table                                                                                   Mon Feb 10 19:32:12 2014

                             _i 0042                               _j 0050                               _x 0048  
      _MQ_Main_Willing_to_block 004A                     _SSPSTATbits 000FC7                              l95 0942  
                            bsr 000FE0       __end_of_ToMainLow_sendmsg 1346                    __CFG_CP0$OFF 000000  
                           l401 0DEC                             l422 12C8                             l423 12CA  
                           l671 13AA            __size_of_WriteTimer0 0012            __size_of_WriteTimer1 0012  
                _FromMainLow_MQ 0136                             wreg 000FE8                    __CFG_IESO$ON 000000  
                  ?_in_high_int 00D9                ??_init_uart_recv 00DB                 ReadTimer1@timer 0003  
                          l2259 0EB6                            l2561 10C2                            l2813 0E3A  
                          l2807 0E0E                            l2833 0F9C                            l2827 0F78  
                          l2819 0E66                            l2847 07B0                            l2863 0876  
                          l1887 107E                            l1879 105C                            l2767 0900  
                          l2777 0948                            _LATB 000F8A                            u1977 13AC  
                          i1l52 0070                 _FromMainHigh_MQ 0100                            _Send 0040  
                 __CFG_FCMEN$ON 000000          ?_block_on_To_msgqueues 0001                            _main 087A  
                          fsr0h 000FEA                            fsr1h 000FE2                            fsr0l 000FE9  
                          fsr2h 000FDA                            indf1 000FE7                            fsr1l 000FE1  
                          indf2 000FDF                            fsr2l 000FD9                            _swit 0046  
                   main@msgtype 01CA                            pclat 000FFA                     i2_check_msg 1346  
                          prodh 000FF4                            prodl 000FF3           handle_start@data_read 002F  
                          start 00B6                   __CFG_FOSC2$ON 000000                ?_adc_int_handler 0001  
                    i2_send_msg 095E       ToMainHigh_recvmsg@msgtype 01B6                 __end_of_ReadADC 142C  
                send_msg@length 000D                 __end_of_OpenADC 0DF0     __size_of_timer0_int_handler 0012  
                   _Delay1KTCYx 13A6                           ?_main 0001                           _T0CON 000FD5  
                    i1memcpy@d1 0001                           i1l456 1396                           i2l242 0D32  
                         i2l252 0456                           i2l254 0170                           i2l280 03DA  
                         i2l272 02E8                           i2l258 01AE                           i2l286 0468  
                    i1memcpy@s1 0003                           _RCREG 000FAE                           _TMR0H 000FD7  
                         _TMR1H 000FCF                           _TMR0L 000FD6                           _TMR1L 000FCE  
                         _TRISB 000F93                      i2memcpy@d1 002F                      i2memcpy@s1 0031  
                  ?_init_queues 0001       __size_of_enter_sleep_mode 0006                 __end_of_in_main 10D2  
                    _ConvertADC 143A         i2c_configure_slave@addr 00D9                           tablat 000FF5  
                         status 000FD8                __end_ofi1_memcpy 1198                __end_ofi2_memcpy 11D8  
               __initialization 1002                    __end_of_main 095E                      _ReadTimer1 13E0  
   __size_of_timer1_int_handler 0030      __size_of_ToMainLow_sendmsg 0026           __size_ofi2_in_low_int 002E  
 __size_of_Handle_i2c_data_save 0044                          ??_main 01BB                 send_msg@msgtype 000E  
                 __activetblptr 000002                 send_msg@tlength 0012            __end_of_handle_start 0D6C  
                        _ADCON0 000FC2                          _ADCON1 000FC1                          _ADCON2 000FC0  
                        _ADRESH 000FC4                          _ADRESL 000FC3         ??_uart_recv_int_handler 001B  
                        i1l2533 0C1A                          i1l2545 0066                          i1l2475 1186  
                        i1l2469 116A                          i1l2499 0B2C                          i2l2081 0FBA  
                        i2l2351 0656                      _OpenTimer0 12A4                          i2l2435 129A  
                        i2l2427 1284                          i2l2355 06A2                          i2l2347 05F6  
                        i2l2603 014E                  __CFG_WDTEN$OFF 000000                          i2l2375 0D48  
                        i2l2359 06E8                          i2l2703 046C                          i2l2377 0D5A  
                        i2l2609 0166                          i2l2627 01E0                          i2l2571 0A6A  
                        i2l2725 05B6                          i2l2717 052E                          i2l2709 04B4  
                        i2l2645 0242                          i2l2629 0200                          i2l2671 0372  
                        i2l2647 0270                          i2l2639 0230                          i2l2915 11C6  
                        i2l2675 0384                          i2l2587 0AB6                          i2l2579 0A92  
                        i2l2909 11AA                          i2l2669 0342                          i2l2697 0430  
                        i2l2895 09AA     __end_of_i2c_configure_slave 1320                   ??_SleepIfOkay 0033  
            __size_of_ReadUSART 001E                          _OSCCON 000FD3                          _SSPADD 000FC8  
                        _SSPBUF 000FC9  __size_of_start_i2c_slave_reply 0164                       ??_ReadADC 0031  
 __end_of_start_i2c_slave_reply 0744                       ??_OpenADC 00DB                    i2_in_low_int 1276  
                   ?i2_send_msg 0039                  __CFG_XINST$OFF 000000                 _i2c_int_handler 00BA  
              OpenTimer0@config 00D9                          _ic_ptr 004C                   main@msgbuffer 01BD  
              __end_of_init_i2c 0CD4                          _length 0044                          _memcpy 0F56  
                        clear_0 1008                          clear_1 1014                          clear_2 1020  
                        _uc_ptr 004E                          main@ic 01D0                          main@uc 01CB  
              __end_of_recv_msg 087A     start_i2c_slave_reply@length 0034                       ??_in_main 00DD  
              __end_of_send_msg 0B9E                    __pdataCOMRAM 0050         i2c_int_handler@i2c_data 00C6  
                        tblptrh 000FF7                          tblptrl 000FF6                          tblptru 000FF8  
                   init_queue@i 00DC            __size_of_in_high_int 0012                     ?_ConvertADC 0001  
               __CFG_FOSC$HSPLL 000000                      __accesstop 0080         __end_of__initialization 103E  
    __end_of_ToMainHigh_recvmsg 1158      __end_of_ToMainHigh_sendmsg 12F8             __end_of_SleepIfOkay 1002  
                __pcstackCOMRAM 0001          __size_ofi2_in_high_int 000C                     ?_ReadTimer1 0001  
            __size_of_check_msg 0036               __end_of_ReadUSART 13A6                       ?i1_memcpy 0001  
 __size_of_InterruptHandlerHigh 0AEC     __end_of_InterruptHandlerLow 00B6                       ?i2_memcpy 002F  
                 _ToMainHigh_MQ 016C                _enter_sleep_mode 1434             __size_ofi2_send_msg 00D2  
                 ReadUSART@data 0001                   check_msg@qptr 00D9         ??_block_on_To_msgqueues 01A4  
          __size_of_init_queues 006E                      __pbssBANK0 0080                      __pbssBANK1 0100  
                   ?_OpenTimer0 0001                      __pnvCOMRAM 004C         __end_of_i2c_int_handler 05E0  
                  ?i2_check_msg 002F               recv_msg@maxlength 01AA                 recv_msg@msgtype 01AB  
               recv_msg@tlength 01B2           __size_of_handle_start 0098                    ?_Delay1KTCYx 0001  
              WriteTimer0@timer 0031                         ?_memcpy 01A2                WriteTimer1@timer 0003  
                 ??_WriteTimer0 0031                   ??_WriteTimer1 0003             __size_of_ConvertADC 0004  
                    ??i1_memcpy 0007                      ??i2_memcpy 0035                   i2_in_high_int 1416  
                       _SSPCON1 000FC6                         _SSPCON2 000FC5                         _SSPSTAT 000FC7  
           __size_of_ReadTimer1 0012               __end_of_check_msg 1246                       ?_init_i2c 00D9  
                   _SleepIfOkay 0FB4                         _ReadADC 1422                       ?_recv_msg 01A8  
                       _OpenADC 0D6C                      _in_low_int 1048                    _handle_start 0CD4  
                       __Hparam 0000                       ?_send_msg 000B                         __Lparam 0000  
    __end_of_timer0_int_handler 1404                init_uart_recv@uc 00D9         Handle_i2c_data_save@msg 002F  
               __CFG_STVREN$OFF 000000                         __pcinit 1002                 __size_of_memcpy 005E  
      __size_of_adc_int_handler 0038                      _init_queue 0E6E                         __ramtop 0400  
           __size_of_OpenTimer0 002A                         __ptext0 087A                         __ptext1 136A  
                       __ptext2 0EE8                         __ptext3 0E6E                         __ptext4 0C3A  
                       __ptext5 12F8                         __ptext6 142C                         __ptext7 0DF0  
                       __ptext8 108E                         __ptext9 1048                       _T0CONbits 000FD5  
                       _in_main 108E             __end_of_WriteTimer0 1416             __end_of_WriteTimer1 13E0  
                ?i2_in_high_int 002F                  OpenADC@config2 00D9                  __pintcode_body 0A30  
          end_of_initialization 103E    __end_of_Handle_i2c_data_save 1116  __size_of_uart_recv_int_handler 009C  
                       memcpy@d 00D9                         memcpy@n 01A6                         memcpy@s 00DB  
 __end_of_uart_recv_int_handler 0C3A                      ??_init_i2c 00DB     i2c_int_handler@data_written 00C4  
                 __Lmediumconst 0000                         int_func 0A30         __size_of_init_uart_recv 001E  
              ?_i2c_int_handler 0001                      ??_recv_msg 01AF                    ??i2_send_msg 003F  
                    ??_send_msg 0011      __end_of_timer1_int_handler 1276                       _RCSTAbits 000FAB  
                       postinc0 000FEE       ToMainHigh_sendmsg@msgtype 00BB      Handle_i2c_data_save@length 0001  
                     _TRISCbits 000F94              __end_ofi2_send_msg 0A30                    ??_ConvertADC 002F  
      timer1_int_handler@result 001C                      main@length 01C9                     ?_in_low_int 00DB  
         _start_i2c_slave_reply 05E0    __size_of_i2c_configure_slave 0028            __size_ofi2_check_msg 0024  
      __end_of_enter_sleep_mode 143A                    ??_ReadTimer1 0003              _ToMainHigh_recvmsg 1116  
                     i1memcpy@d 0007              _ToMainHigh_sendmsg 12CE                       i1memcpy@n 0005  
                     i1memcpy@s 0009                   __pidataCOMRAM 143E                     ?_init_queue 00D9  
                     i2memcpy@d 0035                     _WriteTimer0 1404                     _WriteTimer1 13CE  
                     i2memcpy@n 0033                       i2memcpy@s 0037              __end_of_ConvertADC 143E  
                __end_of_memcpy 0FB4               _enable_interrupts 142C            __size_of_Delay1KTCYx 0016  
           ?_ToMainHigh_recvmsg 01B6                 ??i2_in_high_int 0031        i2c_int_handler@data_read 00C9  
           ?_ToMainHigh_sendmsg 00BB              ?_enable_interrupts 0001             start_initialization 1002  
                 ??_in_high_int 00DB                       _ReadUSART 1388               ??_adc_int_handler 0032  
             __size_ofi1_memcpy 0040               __size_ofi2_memcpy 0040             ??_enable_interrupts 00D9  
                  ??_OpenTimer0 00D9  __size_of_block_on_To_msgqueues 007E              __end_of_ReadTimer1 13F2  
 __end_of_block_on_To_msgqueues 0E6E    __end_of_InterruptHandlerHigh 0AF4                      init_i2c@ic 00D9  
          ??_ToMainHigh_recvmsg 00DD            ??_ToMainHigh_sendmsg 0040        i2c_int_handler@error_buf 00C1  
     __end_of_enable_interrupts 1434                        ??_memcpy 00D9            _Handle_i2c_data_save 10D2  
            __end_of_OpenTimer0 12CE        i2c_int_handler@msg_ready 00C8                     __pbssCOMRAM 0040  
                    ?_ReadUSART 0001                   ??_init_queues 01A2                   __pcstackBANK0 00B6  
                 __pcstackBANK1 01A2             __size_of_in_low_int 0046        start_i2c_slave_reply@msg 002F  
           __CFG_CCP2MX$DEFAULT 000000                 Delay1KTCYx@unit 00D9        ToMainLow_sendmsg@msgtype 0017  
  __size_of_InterruptHandlerLow 009E             __end_of_in_high_int 13CE                    ?_SleepIfOkay 0001  
                  _ToMainLow_MQ 0080             __size_of_init_queue 007A                  _init_uart_recv 136A  
                      ?_ReadADC 002F                       _check_msg 1210          ?_start_i2c_slave_reply 002F  
             __size_of_init_i2c 009A               OpenADC@portconfig 00DA                        ?_OpenADC 00D9  
                  recv_msg@data 01AD                    recv_msg@qmsg 01B4                    recv_msg@slot 01B1  
                  recv_msg@qptr 01A8               __size_of_recv_msg 0136                       __pintcode 0008  
             __size_of_send_msg 00AA           ?_Handle_i2c_data_save 002F                     __pintcodelo 0018  
        ToMainHigh_recvmsg@data 01B8      i2c_int_handler@msg_to_send 00C7                        ?_in_main 01A2  
             WriteTimer0@timer0 002F              _timer0_int_handler 13F2               WriteTimer1@timer1 0001  
         ToMainLow_sendmsg@data 0018             ?_timer0_int_handler 0001          __end_of_init_uart_recv 1388  
           __end_of_init_queues 0F56                   OpenADC@config 01A2                        _LATBbits 000F8A  
               i2check_msg@qptr 002F                      ?_check_msg 00D9                        _IPR1bits 000F9F  
                      _PIE1bits 000F9D                   ?i2_in_low_int 0031                        i2u160_40 0A9E  
                      i2u160_46 0AA0                        i2u158_40 0A76                        i2u158_46 0A78  
                      _PIR1bits 000F9E          ToMainHigh_sendmsg@data 00BC                        _RCONbits 000FD0  
              __CFG_WDTPS$32768 000000            ??_timer0_int_handler 0033      __size_of_enable_interrupts 0008  
                    _ADCON0bits 000FC2              _timer1_int_handler 1246                        i1_memcpy 1158  
          _InterruptHandlerHigh 0008                     ??_ReadUSART 0001                        i2_memcpy 1198  
                   _in_high_int 13BC                    send_msg@data 000F             _i2c_configure_slave 12F8  
                  send_msg@qmsg 0015                    send_msg@slot 0014                    send_msg@qptr 000B  
           ?_timer1_int_handler 0001                 ?_init_uart_recv 00D9                  ??i2_in_low_int 0033  
         _uart_recv_int_handler 0B9E                    ??_in_low_int 00DD                __size_of_ReadADC 000A  
                      __Hrparam 0000                __size_of_OpenADC 0084            ?_i2c_configure_slave 0001  
                      __Lrparam 0000               ?_enter_sleep_mode 0001          ??_Handle_i2c_data_save 0031  
          ??_timer1_int_handler 001B                 _adc_int_handler 11D8        __size_of_i2c_int_handler 0526  
            ??_enter_sleep_mode 002F                    ??_init_queue 00DB                    ?_WriteTimer0 002F  
                  ?_WriteTimer1 0001         ToMainLow_sendmsg@length 001A           ?_InterruptHandlerHigh 0001  
              __size_of_in_main 0044               i2send_msg@msgtype 003C     ToMainHigh_recvmsg@maxlength 01BA  
             i2send_msg@tlength 00B6                     _init_queues 0EE8              __end_of_in_low_int 108E  
                      __ptext10 13BC                        __ptext11 1210                        __ptext20 1388  
                      __ptext12 13A6                        __ptext21 1246                        __ptext13 1116  
                      __ptext30 143A                        __ptext22 13CE                        __ptext14 0744  
                      __ptext31 00BA                        __ptext23 1320                        __ptext15 0F56  
                      __ptext40 0FB4                        __ptext32 05E0                        __ptext24 0AF4  
                      __ptext16 12A4                        __ptext41 1276                        __ptext33 0CD4  
                      __ptext25 1158                        __ptext17 0D6C                        __ptext42 1416  
                      __ptext34 12CE                        __ptext26 13E0                        __ptext43 1346  
                      __ptext35 095E                        __ptext19 0B9E                        __ptext44 1434  
                      __ptext36 1198                        __ptext28 13F2                        __ptext37 11D8  
                      __ptext29 1404                        __ptext38 1422                        __ptext39 10D2  
                      _init_i2c 0C3A                   __size_of_main 00E4                   ??i2_check_msg 0031  
                   ??_check_msg 00DB              __end_of_init_queue 0EE8            __size_of_SleepIfOkay 004E  
                      _recv_msg 0744           ??_i2c_configure_slave 00D9                        _send_msg 0AF4  
                init_queue@qptr 00D9                   ??_Delay1KTCYx 00D9             _InterruptHandlerLow 0018  
                   _OSCTUNEbits 000F9B                      _INTCONbits 000FF2                        memcpy@d1 01A2  
                      memcpy@s1 01A4           __end_ofi2_in_high_int 1422    i2c_int_handler@overrun_error 00C5  
              i2send_msg@length 003B                        intlevel1 0000                        intlevel2 0000  
          ?_InterruptHandlerLow 0001         ??_start_i2c_slave_reply 0031          ?_uart_recv_int_handler 0001  
         _block_on_To_msgqueues 0DF0                   ?_handle_start 0001     __size_of_ToMainHigh_recvmsg 0042  
       __end_of_adc_int_handler 1210     __size_of_ToMainHigh_sendmsg 002A                      _OSCCONbits 000FD3  
         adc_int_handler@result 0034        ToMainHigh_sendmsg@length 00BE             __end_ofi2_check_msg 136A  
        ??_InterruptHandlerHigh 00CA               _ToMainLow_sendmsg 1320              main@last_reg_recvd 01C8  
          __end_ofi2_in_low_int 12A4             __end_of_Delay1KTCYx 13BC               ??_i2c_int_handler 00BF  
            ?_ToMainLow_sendmsg 0017                     _SSPCON1bits 000FC6                     _SSPCON2bits 000FC5  
                i2send_msg@data 003D           ??_InterruptHandlerLow 001E                  i2send_msg@qmsg 00B9  
                i2send_msg@slot 00B8                  i2send_msg@qptr 0039             ??_ToMainLow_sendmsg 001A  
                ??_handle_start 002F                    _USART_Status 004B  
